
Optional file vector_offset_init.o not found
Archive member included to satisfy reference by file (symbol)

c:/program files/microchip/xc32/v4.00/bin/bin/../../lib/gcc/pic32mx/8.3.1/fpu64\libgcc.a(_udivdi3.o)
                              build/default/debug/_ext/101884895/sys_time.o (__udivdi3)
c:/program files/microchip/xc32/v4.00/bin/bin/../../lib/gcc/pic32mx/8.3.1/../../../../pic32mx/lib/fpu64\libpic32.a(memcpy.o)
                              build/default/debug/_ext/404212886/queue.o (memcpy)
c:/program files/microchip/xc32/v4.00/bin/bin/../../lib/gcc/pic32mx/8.3.1/../../../../pic32mx/lib/fpu64\libpic32.a(memset.o)
                              build/default/debug/_ext/101884895/sys_time.o (memset)
c:/program files/microchip/xc32/v4.00/bin/bin/../../lib/gcc/pic32mx/8.3.1/../../../../pic32mx/lib/fpu64\libpic32.a(default-on-reset.o)
                              C:\Users\rkucb\AppData\Local\Temp\ccMUkNN3.o (_on_reset)
c:/program files/microchip/xc32/v4.00/bin/bin/../../lib/gcc/pic32mx/8.3.1/../../../../pic32mx/lib/fpu64\libpic32.a(default-on-bootstrap.o)
                              C:\Users\rkucb\AppData\Local\Temp\ccMUkNN3.o (_on_bootstrap)
c:/program files/microchip/xc32/v4.00/bin/bin/../../lib/gcc/pic32mx/8.3.1/../../../../pic32mx/lib/fpu64\libpic32.a(default-nmi-handler.o)
                              C:\Users\rkucb\AppData\Local\Temp\ccMUkNN3.o (_nmi_handler)
c:/program files/microchip/xc32/v4.00/bin/bin/../../lib/gcc/pic32mx/8.3.1/../../../../pic32mx/lib/fpu64\libpic32.a(pic32_data_init.o)
                              C:\Users\rkucb\AppData\Local\Temp\ccMUkNN3.o (__pic32_data_init)
c:/program files/microchip/xc32/v4.00/bin/bin/../../lib/gcc/pic32mx/8.3.1/../../../../pic32mx/lib/fpu64\libpic32.a(general-exception.o)
                              C:\Users\rkucb\AppData\Local\Temp\ccMUkNN3.o (_general_exception_context)
c:/program files/microchip/xc32/v4.00/bin/bin/../../lib/gcc/pic32mx/8.3.1/../../../../pic32mx/lib/fpu64\libpic32.a(defaultinterrupt.o)
                              C:\Users\rkucb\AppData\Local\Temp\ccaM0Zr1.o (_DefaultInterrupt)

Microchip PIC32 Memory-Usage Report

kseg0 Program-Memory Usage
section                    address  length [bytes]      (dec)  Description
-------                 ----------  -------------------------  -----------
.text                   0x9d000000          0x168         360  App's exec code 
.MIPS.abiflags          0x9d000168           0x18          24   
.app_excpt              0x9d000180           0x10          16  General-Exception 
.text.vApplicationSetup 0x9d000190           0x6c         108   
.rodata                 0x9d0001fc            0x4           4  Read-only const 
.vectors                0x9d000200         0x166c        5740   
.dinit                  0x9d00186c          0x500        1280   
.text.vTaskSendUBXmessa 0x9d001d6c          0x378         888   
.text.PackPDU           0x9d0020e4          0x358         856   
.text.xQueueSemaphoreTa 0x9d00243c          0x2d4         724   
.text.xQueueGenericSend 0x9d002710          0x29c         668   
.text.xQueueReceive     0x9d0029ac          0x240         576   
.text.SYS_TIME_PLIBCall 0x9d002bec          0x1e0         480   
.text.xTaskIncrementTic 0x9d002dcc          0x1c4         452   
.text.xTaskResumeAll    0x9d002f90          0x198         408   
.text.vTaskSwitchContex 0x9d003128          0x160         352   
.text.vTaskPriorityDisi 0x9d003288          0x154         340   
.text.vTaskNotifyGiveFr 0x9d0033dc          0x14c         332   
.text.DMA1_InterruptHan 0x9d003528          0x140         320   
.text.xTaskPriorityDisi 0x9d003668          0x13c         316   
.text.prvInitialiseNewT 0x9d0037a4          0x12c         300   
.text.xTaskPriorityInhe 0x9d0038d0          0x12c         300   
.text.GPIO_Initialize   0x9d0039fc          0x118         280   
.text.prvAddNewTaskToRe 0x9d003b14          0x10c         268   
.text.DMAC_ChannelSetAd 0x9d003c20          0x104         260   
.text.DMAC_ChannelTrans 0x9d003d24          0x104         260   
.text.SYS_Tasks         0x9d003e28          0x104         260   
.text                   0x9d003f2c          0x104         260  App's exec code 
.text.prvUnlockQueue    0x9d004030          0x104         260   
.text.UART1_TX_Interrup 0x9d004134          0x100         256   
.text.prvCopyDataToQueu 0x9d004234           0xfc         252   
.text.CAN1_MessageTrans 0x9d004330           0xf0         240   
.text.SYS_TIME_AddToLis 0x9d004420           0xe8         232   
.text.xQueueGenericRese 0x9d004508           0xe8         232   
.text.prvAddCurrentTask 0x9d0045f0           0xe8         232   
.text.xTaskCheckForTime 0x9d0046d8           0xe4         228   
.text.CAN1_Initialize   0x9d0047bc           0xdc         220   
.text.xTaskRemoveFromEv 0x9d004898           0xdc         220   
.text.general_exception 0x9d004974           0xdc         220   
.text.SYS_TIME_Initiali 0x9d004a50           0xd0         208   
.text.ulTaskNotifyTake  0x9d004b20           0xcc         204   
.text.CLK_Initialize    0x9d004bec           0xc4         196   
.text.xTaskCreate       0x9d004cb0           0xc4         196   
.text.pvPortMalloc      0x9d004d74           0xb8         184   
.text.SYS_Initialize    0x9d004e2c           0xb4         180   
.text.vTaskProcessUBXme 0x9d004ee0           0xac         172   
.text.prvInitialiseTask 0x9d004f8c           0xac         172   
.text                   0x9d005038           0xa8         168  App's exec code 
.text.vTaskStartSchedul 0x9d0050e0           0xa0         160   
.text.UBXframeFind      0x9d005180           0x90         144   
.text.SYS_TIME_GetTimer 0x9d005210           0x8c         140   
.text.SYS_TIME_RemoveFr 0x9d00529c           0x8c         140   
.text.UBXframeProcess   0x9d005328           0x8c         140   
.text.xQueueGenericCrea 0x9d0053b4           0x8c         140   
.text                   0x9d005440           0x8c         140  App's exec code 
.text.UART1_Initialize  0x9d0054cc           0x88         136   
.text.DMAC_Initialize   0x9d005554           0x80         128   
.text.prvCheckTasksWait 0x9d0055d4           0x80         128   
.text.SYS_TIME_TimerDes 0x9d005654           0x7c         124   
.text.vTaskEnterCritica 0x9d0056d0           0x7c         124   
.text.vTaskDelay        0x9d00574c           0x7c         124   
.text.UART1_ErrorClear  0x9d0057c8           0x78         120   
.text.UART1_FAULT_Inter 0x9d005840           0x64         100   
.text.SYS_TIME_Resource 0x9d0058a4           0x60          96   
.text.pxPortInitialiseS 0x9d005904           0x60          96   
.text.vTaskExitCritical 0x9d005964           0x60          96   
.text.EVIC_Initialize   0x9d0059c4           0x5c          92   
.text.vTaskGetUART1byte 0x9d005a20           0x5c          92   
.text.xPortStartSchedul 0x9d005a7c           0x5c          92   
.text.SYS_INT_SourceDis 0x9d005ad8           0x58          88   
.text.vTaskGetUART1byte 0x9d005b30           0x58          88   
.text.vListInsert       0x9d005b88           0x58          88   
.text.prvCopyDataFromQu 0x9d005be0           0x58          88   
.text.xQueueCreateMutex 0x9d005c38           0x58          88   
.text.vTaskPlaceOnEvent 0x9d005c90           0x58          88   
.text.vPortIncrementTic 0x9d005ce8           0x54          84   
.text.main_entry        0x9d005d3c           0x54          84   
.text.vTaskSendUBXheart 0x9d005d90           0x50          80   
.text.prvTaskExitError  0x9d005de0           0x4c          76   
.text.SYS_TIME_Resource 0x9d005e2c           0x48          72   
.rodata.str1.4          0x9d005e74           0x48          72   
.text.uxListRemove      0x9d005ebc           0x48          72   
.text.main              0x9d005f04           0x48          72   
.text.OSAL_MUTEX_Create 0x9d005f4c           0x44          68   
.text.TMR2_Initialize   0x9d005f90           0x44          68   
.text                   0x9d005fd4           0x44          68  App's exec code 
.text.TIMER_2_Interrupt 0x9d006018           0x40          64   
.text.prvIdleTask       0x9d006058           0x40          64   
.text.uxPortSetInterrup 0x9d006098           0x38          56   
.text.prvResetNextTaskU 0x9d0060d0           0x38          56   
.text.UARTDmaChannelHan 0x9d006108           0x34          52   
.text.vPortFree         0x9d00613c           0x34          52   
.text.prvIsQueueEmpty   0x9d006170           0x34          52   
.text.OSAL_MUTEX_Lock   0x9d0061a4           0x30          48   
.text.OSAL_MUTEX_Unlock 0x9d0061d4           0x30          48   
.text.vListInsertEnd    0x9d006204           0x30          48   
.text.prvDeleteTCB      0x9d006234           0x30          48   
.text.EVIC_SourceEnable 0x9d006264           0x28          40   
.text.EVIC_SourceDisabl 0x9d00628c           0x28          40   
.text.EVIC_INT_Restore  0x9d0062b4           0x28          40   
.text.pvTaskIncrementMu 0x9d0062dc           0x28          40   
.text.vApplicationStack 0x9d006304           0x24          36   
.text.vApplicationMallo 0x9d006328           0x24          36   
.text.vListInitialise   0x9d00634c           0x24          36   
.text.EVIC_SourceIsEnab 0x9d006370           0x20          32   
.text.UART1_RX_Interrup 0x9d006390           0x20          32   
.text.DMAC_ChannelCallb 0x9d0063b0           0x1c          28   
.rodata                 0x9d0063cc           0x1c          28  Read-only const 
.text.TIMER_2_Handler   0x9d0063e8           0x1c          28   
.text.UART1_FAULT_Handl 0x9d006404           0x1c          28   
.text.UART1_RX_Handler  0x9d006420           0x1c          28   
.text.UART1_TX_Handler  0x9d00643c           0x1c          28   
.text.DMA1_Handler      0x9d006458           0x1c          28   
.text._general_exceptio 0x9d006474           0x1c          28   
.text._bootstrap_except 0x9d006490           0x1c          28   
.text.vPortClearInterru 0x9d0064ac           0x1c          28   
.text.lvTaskSendUBXhear 0x9d0064c8           0x18          24   
.text.lvTaskSendUBXmess 0x9d0064e0           0x18          24   
.text.lvTaskProcessUBXm 0x9d0064f8           0x18          24   
.text.lvTaskGetUART1byt 0x9d006510           0x18          24   
.text                   0x9d006528           0x18          24  App's exec code 
.text.TMR2_Start        0x9d006540           0x14          20   
.text.TMR2_Stop         0x9d006554           0x14          20   
.text.vTaskSuspendAll   0x9d006568           0x14          20   
.text.vTaskInternalSetT 0x9d00657c           0x14          20   
.text.TMR2_PeriodSet    0x9d006590           0x10          16   
.text.TMR2_CallbackRegi 0x9d0065a0           0x10          16   
.text.vTaskMissedYield  0x9d0065b0           0x10          16   
.text.__exception_handl 0x9d0065c0            0xc          12   
.text.TMR2_FrequencyGet 0x9d0065cc            0xc          12   
.text.UART3_FAULT_Handl 0x9d0065d8            0x8           8   
.text.UART3_RX_Handler  0x9d0065e0            0x8           8   
.text.UART3_TX_Handler  0x9d0065e8            0x8           8   
.rodata                 0x9d0065f0            0x8           8  Read-only const 
.text.vTaskProcessUBXme 0x9d0065f8            0x8           8   
.text.vTaskSendUBXmessa 0x9d006600            0x8           8   
.text.vListInitialiseIt 0x9d006608            0x8           8   
.rodata.str1.4          0x9d006610            0x8           8   
.text._on_reset         0x9d006618            0x8           8   
.text._on_bootstrap     0x9d006620            0x8           8   
      Total kseg0_program_mem used  :      0x6628       26152  5.0% of 0x80000

kseg0 Boot-Memory Usage
section                    address  length [bytes]      (dec)  Description
-------                 ----------  -------------------------  -----------
         Total kseg0_boot_mem used  :           0           0  

kseg1 Boot-Memory Usage
section                    address  length [bytes]      (dec)  Description
-------                 ----------  -------------------------  -----------
.reset                  0xbfc00000          0x1a4         420  Reset handler 
.bev_excpt              0xbfc00380           0x10          16  BEV-Exception 
         Total kseg1_boot_mem used  :       0x1b4         436  37.8% of 0x480
        --------------------------------------------------------------------------
         Total Program Memory used  :      0x67dc       26588  5.1% of 0x80480
        --------------------------------------------------------------------------


kseg0 Data-Memory Usage
section                    address  length [bytes]      (dec)  Description
-------                 ----------  -------------------------  -----------
reserve_data_0_kseg0    0x80000000          0x370         880   
.sdata                  0x80000370            0xc          12  Small init data 
.sbss                   0x8000037c           0x70         112  Small uninit data 
.bss                    0x80000600         0x7560       30048  Uninitialized data 
.bss                    0x80007b60          0x1a4         420  Uninitialized data 
.bss                    0x80007d04          0x15c         348  Uninitialized data 
.bss                    0x80007e60           0x34          52  Uninitialized data 
         Total kseg0_data_mem used  :      0x7c80       31872  24.3% of 0x20000

kseg1 Data-Memory Usage
section                    address  length [bytes]      (dec)  Description
-------                 ----------  -------------------------  -----------
reserve_data_0_kseg1    0xa0000000          0x370         880   
         Total kseg1_data_mem used  :       0x370         880  100.0% of 0x370
        --------------------------------------------------------------------------
            Total Data Memory used  :      0x7ff0       32752  24.8% of 0x20370
        --------------------------------------------------------------------------


Dynamic Data-Memory Reservation
section                    address  length [bytes]      (dec)  Description
-------                 ----------  -------------------------  -----------
heap                    0x80007e98          0x200         512  Reserved for heap 
stack                   0x800080b0        0x17f40       98112  Reserved for stack 

        --------------------------------------------------------------------------

Discarded input sections

 .text          0x0000000000000000        0x0 c:/program files/microchip/xc32/v4.00/bin/bin/../../lib/gcc/pic32mx/8.3.1/../../../../pic32mx/lib/fpu64\software-debug-break.o
 .data          0x0000000000000000        0x0 c:/program files/microchip/xc32/v4.00/bin/bin/../../lib/gcc/pic32mx/8.3.1/../../../../pic32mx/lib/fpu64\software-debug-break.o
 .bss           0x0000000000000000        0x0 c:/program files/microchip/xc32/v4.00/bin/bin/../../lib/gcc/pic32mx/8.3.1/../../../../pic32mx/lib/fpu64\software-debug-break.o
 .xc_stack_usage
                0x0000000000000000       0x27 c:/program files/microchip/xc32/v4.00/bin/bin/../../lib/gcc/pic32mx/8.3.1/../../../../pic32mx/lib/fpu64\software-debug-break.o
 .xc_stack_usage.hdr
                0x0000000000000000        0xe c:/program files/microchip/xc32/v4.00/bin/bin/../../lib/gcc/pic32mx/8.3.1/../../../../pic32mx/lib/fpu64\software-debug-break.o
 .text          0x0000000000000000        0x0 build/default/debug/_ext/1529399856/osal_freertos.o
 .data          0x0000000000000000        0x0 build/default/debug/_ext/1529399856/osal_freertos.o
 .bss           0x0000000000000000        0x0 build/default/debug/_ext/1529399856/osal_freertos.o
 .reginfo       0x0000000000000000       0x18 build/default/debug/_ext/1529399856/osal_freertos.o
 .MIPS.abiflags
                0x0000000000000000       0x18 build/default/debug/_ext/1529399856/osal_freertos.o
 .text.OSAL_CRIT_Enter
                0x0000000000000000       0x48 build/default/debug/_ext/1529399856/osal_freertos.o
 .text.OSAL_CRIT_Leave
                0x0000000000000000       0x44 build/default/debug/_ext/1529399856/osal_freertos.o
 .text.OSAL_SEM_Create
                0x0000000000000000       0xac build/default/debug/_ext/1529399856/osal_freertos.o
 .text.OSAL_SEM_Delete
                0x0000000000000000       0x30 build/default/debug/_ext/1529399856/osal_freertos.o
 .text.OSAL_SEM_Pend
                0x0000000000000000       0x30 build/default/debug/_ext/1529399856/osal_freertos.o
 .text.OSAL_SEM_Post
                0x0000000000000000       0x30 build/default/debug/_ext/1529399856/osal_freertos.o
 .text.OSAL_SEM_PostISR
                0x0000000000000000       0x4c build/default/debug/_ext/1529399856/osal_freertos.o
 .text.OSAL_SEM_GetCount
                0x0000000000000000       0x2c build/default/debug/_ext/1529399856/osal_freertos.o
 .text.OSAL_MUTEX_Delete
                0x0000000000000000       0x44 build/default/debug/_ext/1529399856/osal_freertos.o
 .text.OSAL_Malloc
                0x0000000000000000       0x1c build/default/debug/_ext/1529399856/osal_freertos.o
 .text.OSAL_Free
                0x0000000000000000       0x1c build/default/debug/_ext/1529399856/osal_freertos.o
 .text.OSAL_Initialize
                0x0000000000000000        0x8 build/default/debug/_ext/1529399856/osal_freertos.o
 .text          0x0000000000000000        0x0 build/default/debug/_ext/1984168316/plib_canfd1.o
 .data          0x0000000000000000        0x0 build/default/debug/_ext/1984168316/plib_canfd1.o
 .bss           0x0000000000000000        0x0 build/default/debug/_ext/1984168316/plib_canfd1.o
 .reginfo       0x0000000000000000       0x18 build/default/debug/_ext/1984168316/plib_canfd1.o
 .MIPS.abiflags
                0x0000000000000000       0x18 build/default/debug/_ext/1984168316/plib_canfd1.o
 .text.CAN1_MessageReceive
                0x0000000000000000      0x10c build/default/debug/_ext/1984168316/plib_canfd1.o
 .text.CAN1_MessageAbort
                0x0000000000000000       0x20 build/default/debug/_ext/1984168316/plib_canfd1.o
 .text.CAN1_MessageAcceptanceFilterSet
                0x0000000000000000       0x70 build/default/debug/_ext/1984168316/plib_canfd1.o
 .text.CAN1_MessageAcceptanceFilterGet
                0x0000000000000000       0x50 build/default/debug/_ext/1984168316/plib_canfd1.o
 .text.CAN1_MessageAcceptanceFilterMaskSet
                0x0000000000000000       0xbc build/default/debug/_ext/1984168316/plib_canfd1.o
 .text.CAN1_MessageAcceptanceFilterMaskGet
                0x0000000000000000       0x4c build/default/debug/_ext/1984168316/plib_canfd1.o
 .text.CAN1_ErrorGet
                0x0000000000000000       0x14 build/default/debug/_ext/1984168316/plib_canfd1.o
 .text.CAN1_ErrorCountGet
                0x0000000000000000       0x1c build/default/debug/_ext/1984168316/plib_canfd1.o
 .text.CAN1_InterruptGet
                0x0000000000000000       0x34 build/default/debug/_ext/1984168316/plib_canfd1.o
 .text.CAN1_TxFIFOQueueIsFull
                0x0000000000000000       0x40 build/default/debug/_ext/1984168316/plib_canfd1.o
 .text.CAN1_AutoRTRResponseSet
                0x0000000000000000       0xec build/default/debug/_ext/1984168316/plib_canfd1.o
 .rodata        0x0000000000000000       0x10 build/default/debug/_ext/1984168316/plib_canfd1.o
 .text          0x0000000000000000        0x0 build/default/debug/_ext/60165520/plib_clk.o
 .data          0x0000000000000000        0x0 build/default/debug/_ext/60165520/plib_clk.o
 .bss           0x0000000000000000        0x0 build/default/debug/_ext/60165520/plib_clk.o
 .reginfo       0x0000000000000000       0x18 build/default/debug/_ext/60165520/plib_clk.o
 .MIPS.abiflags
                0x0000000000000000       0x18 build/default/debug/_ext/60165520/plib_clk.o
 .text          0x0000000000000000        0x0 build/default/debug/_ext/1865161661/plib_dmac.o
 .data          0x0000000000000000        0x0 build/default/debug/_ext/1865161661/plib_dmac.o
 .reginfo       0x0000000000000000       0x18 build/default/debug/_ext/1865161661/plib_dmac.o
 .MIPS.abiflags
                0x0000000000000000       0x18 build/default/debug/_ext/1865161661/plib_dmac.o
 .text.DMAC_ChainTransferSetup
                0x0000000000000000       0xcc build/default/debug/_ext/1865161661/plib_dmac.o
 .text.DMAC_ChannelPatternMatchSetup
                0x0000000000000000       0x48 build/default/debug/_ext/1865161661/plib_dmac.o
 .text.DMAC_ChannelPatternMatchDisable
                0x0000000000000000       0x28 build/default/debug/_ext/1865161661/plib_dmac.o
 .text.DMAC_ChannelDisable
                0x0000000000000000       0x44 build/default/debug/_ext/1865161661/plib_dmac.o
 .text.DMAC_ChannelIsBusy
                0x0000000000000000       0x40 build/default/debug/_ext/1865161661/plib_dmac.o
 .text.DMAC_ChannelTransferStatusGet
                0x0000000000000000       0x40 build/default/debug/_ext/1865161661/plib_dmac.o
 .text.DMAC_ChannelCRCSetup
                0x0000000000000000       0x8c build/default/debug/_ext/1865161661/plib_dmac.o
 .text.DMAC_CRCDisable
                0x0000000000000000       0x14 build/default/debug/_ext/1865161661/plib_dmac.o
 .text.DMAC_CRCRead
                0x0000000000000000       0x60 build/default/debug/_ext/1865161661/plib_dmac.o
 .text          0x0000000000000000        0x0 build/default/debug/_ext/1865200349/plib_evic.o
 .data          0x0000000000000000        0x0 build/default/debug/_ext/1865200349/plib_evic.o
 .bss           0x0000000000000000        0x0 build/default/debug/_ext/1865200349/plib_evic.o
 .reginfo       0x0000000000000000       0x18 build/default/debug/_ext/1865200349/plib_evic.o
 .MIPS.abiflags
                0x0000000000000000       0x18 build/default/debug/_ext/1865200349/plib_evic.o
 .text.EVIC_SourceStatusGet
                0x0000000000000000       0x20 build/default/debug/_ext/1865200349/plib_evic.o
 .text.EVIC_SourceStatusSet
                0x0000000000000000       0x28 build/default/debug/_ext/1865200349/plib_evic.o
 .text.EVIC_SourceStatusClear
                0x0000000000000000       0x28 build/default/debug/_ext/1865200349/plib_evic.o
 .text.EVIC_INT_Enable
                0x0000000000000000       0x18 build/default/debug/_ext/1865200349/plib_evic.o
 .text.EVIC_INT_Disable
                0x0000000000000000       0x20 build/default/debug/_ext/1865200349/plib_evic.o
 .text          0x0000000000000000        0x0 build/default/debug/_ext/1865254177/plib_gpio.o
 .data          0x0000000000000000        0x0 build/default/debug/_ext/1865254177/plib_gpio.o
 .bss           0x0000000000000000        0x0 build/default/debug/_ext/1865254177/plib_gpio.o
 .reginfo       0x0000000000000000       0x18 build/default/debug/_ext/1865254177/plib_gpio.o
 .MIPS.abiflags
                0x0000000000000000       0x18 build/default/debug/_ext/1865254177/plib_gpio.o
 .text.GPIO_PortRead
                0x0000000000000000       0x18 build/default/debug/_ext/1865254177/plib_gpio.o
 .text.GPIO_PortWrite
                0x0000000000000000       0x2c build/default/debug/_ext/1865254177/plib_gpio.o
 .text.GPIO_PortLatchRead
                0x0000000000000000       0x18 build/default/debug/_ext/1865254177/plib_gpio.o
 .text.GPIO_PortSet
                0x0000000000000000       0x1c build/default/debug/_ext/1865254177/plib_gpio.o
 .text.GPIO_PortClear
                0x0000000000000000       0x1c build/default/debug/_ext/1865254177/plib_gpio.o
 .text.GPIO_PortToggle
                0x0000000000000000       0x1c build/default/debug/_ext/1865254177/plib_gpio.o
 .text.GPIO_PortInputEnable
                0x0000000000000000       0x1c build/default/debug/_ext/1865254177/plib_gpio.o
 .text.GPIO_PortOutputEnable
                0x0000000000000000       0x1c build/default/debug/_ext/1865254177/plib_gpio.o
 .text          0x0000000000000000        0x0 build/default/debug/_ext/60181895/plib_tmr2.o
 .data          0x0000000000000000        0x0 build/default/debug/_ext/60181895/plib_tmr2.o
 .bss           0x0000000000000000        0x0 build/default/debug/_ext/60181895/plib_tmr2.o
 .reginfo       0x0000000000000000       0x18 build/default/debug/_ext/60181895/plib_tmr2.o
 .MIPS.abiflags
                0x0000000000000000       0x18 build/default/debug/_ext/60181895/plib_tmr2.o
 .text.TMR2_PeriodGet
                0x0000000000000000       0x10 build/default/debug/_ext/60181895/plib_tmr2.o
 .text.TMR2_CounterGet
                0x0000000000000000       0x10 build/default/debug/_ext/60181895/plib_tmr2.o
 .text.TMR2_InterruptEnable
                0x0000000000000000       0x14 build/default/debug/_ext/60181895/plib_tmr2.o
 .text.TMR2_InterruptDisable
                0x0000000000000000       0x14 build/default/debug/_ext/60181895/plib_tmr2.o
 .text          0x0000000000000000        0x0 build/default/debug/_ext/1865657120/plib_uart1.o
 .data          0x0000000000000000        0x0 build/default/debug/_ext/1865657120/plib_uart1.o
 .reginfo       0x0000000000000000       0x18 build/default/debug/_ext/1865657120/plib_uart1.o
 .MIPS.abiflags
                0x0000000000000000       0x18 build/default/debug/_ext/1865657120/plib_uart1.o
 .text.UART1_SerialSetup
                0x0000000000000000      0x13c build/default/debug/_ext/1865657120/plib_uart1.o
 .text.UART1_Read
                0x0000000000000000       0x90 build/default/debug/_ext/1865657120/plib_uart1.o
 .text.UART1_Write
                0x0000000000000000       0xbc build/default/debug/_ext/1865657120/plib_uart1.o
 .text.UART1_ErrorGet
                0x0000000000000000       0x18 build/default/debug/_ext/1865657120/plib_uart1.o
 .text.UART1_AutoBaudQuery
                0x0000000000000000       0x10 build/default/debug/_ext/1865657120/plib_uart1.o
 .text.UART1_AutoBaudSet
                0x0000000000000000       0x18 build/default/debug/_ext/1865657120/plib_uart1.o
 .text.UART1_ReadCallbackRegister
                0x0000000000000000       0x14 build/default/debug/_ext/1865657120/plib_uart1.o
 .text.UART1_ReadIsBusy
                0x0000000000000000        0xc build/default/debug/_ext/1865657120/plib_uart1.o
 .text.UART1_ReadCountGet
                0x0000000000000000        0xc build/default/debug/_ext/1865657120/plib_uart1.o
 .text.UART1_ReadAbort
                0x0000000000000000       0x3c build/default/debug/_ext/1865657120/plib_uart1.o
 .text.UART1_WriteCallbackRegister
                0x0000000000000000       0x14 build/default/debug/_ext/1865657120/plib_uart1.o
 .text.UART1_WriteIsBusy
                0x0000000000000000        0xc build/default/debug/_ext/1865657120/plib_uart1.o
 .text.UART1_WriteCountGet
                0x0000000000000000        0xc build/default/debug/_ext/1865657120/plib_uart1.o
 .text          0x0000000000000000        0x0 build/default/debug/_ext/163028504/xc32_monitor.o
 .data          0x0000000000000000        0x0 build/default/debug/_ext/163028504/xc32_monitor.o
 .bss           0x0000000000000000        0x0 build/default/debug/_ext/163028504/xc32_monitor.o
 .reginfo       0x0000000000000000       0x18 build/default/debug/_ext/163028504/xc32_monitor.o
 .MIPS.abiflags
                0x0000000000000000       0x18 build/default/debug/_ext/163028504/xc32_monitor.o
 .text._mon_getc
                0x0000000000000000        0x8 build/default/debug/_ext/163028504/xc32_monitor.o
 .text._mon_putc
                0x0000000000000000        0x8 build/default/debug/_ext/163028504/xc32_monitor.o
 .text          0x0000000000000000        0x0 build/default/debug/_ext/1881668453/sys_int.o
 .data          0x0000000000000000        0x0 build/default/debug/_ext/1881668453/sys_int.o
 .bss           0x0000000000000000        0x0 build/default/debug/_ext/1881668453/sys_int.o
 .reginfo       0x0000000000000000       0x18 build/default/debug/_ext/1881668453/sys_int.o
 .MIPS.abiflags
                0x0000000000000000       0x18 build/default/debug/_ext/1881668453/sys_int.o
 .text.SYS_INT_Enable
                0x0000000000000000       0x1c build/default/debug/_ext/1881668453/sys_int.o
 .text.SYS_INT_Disable
                0x0000000000000000       0x1c build/default/debug/_ext/1881668453/sys_int.o
 .text.SYS_INT_Restore
                0x0000000000000000       0x1c build/default/debug/_ext/1881668453/sys_int.o
 .text.SYS_INT_SourceRestore
                0x0000000000000000       0x2c build/default/debug/_ext/1881668453/sys_int.o
 .text          0x0000000000000000        0x0 build/default/debug/_ext/101884895/sys_time.o
 .data          0x0000000000000000        0x0 build/default/debug/_ext/101884895/sys_time.o
 .reginfo       0x0000000000000000       0x18 build/default/debug/_ext/101884895/sys_time.o
 .MIPS.abiflags
                0x0000000000000000       0x18 build/default/debug/_ext/101884895/sys_time.o
 .text.SYS_TIME_TimerObjectCreate
                0x0000000000000000      0x130 build/default/debug/_ext/101884895/sys_time.o
 .text.SYS_TIME_Deinitialize
                0x0000000000000000       0x8c build/default/debug/_ext/101884895/sys_time.o
 .text.SYS_TIME_Status
                0x0000000000000000       0x24 build/default/debug/_ext/101884895/sys_time.o
 .text.SYS_TIME_FrequencyGet
                0x0000000000000000        0xc build/default/debug/_ext/101884895/sys_time.o
 .text.SYS_TIME_Counter64Get
                0x0000000000000000       0x5c build/default/debug/_ext/101884895/sys_time.o
 .text.SYS_TIME_CounterGet
                0x0000000000000000       0x1c build/default/debug/_ext/101884895/sys_time.o
 .text.SYS_TIME_CounterSet
                0x0000000000000000       0x48 build/default/debug/_ext/101884895/sys_time.o
 .text.SYS_TIME_CountToUS
                0x0000000000000000       0x84 build/default/debug/_ext/101884895/sys_time.o
 .text.SYS_TIME_CountToMS
                0x0000000000000000       0x64 build/default/debug/_ext/101884895/sys_time.o
 .text.SYS_TIME_USToCount
                0x0000000000000000       0x38 build/default/debug/_ext/101884895/sys_time.o
 .text.SYS_TIME_MSToCount
                0x0000000000000000       0x34 build/default/debug/_ext/101884895/sys_time.o
 .text.SYS_TIME_TimerCreate
                0x0000000000000000       0x30 build/default/debug/_ext/101884895/sys_time.o
 .text.SYS_TIME_TimerReload
                0x0000000000000000       0xfc build/default/debug/_ext/101884895/sys_time.o
 .text.SYS_TIME_TimerStart
                0x0000000000000000       0x94 build/default/debug/_ext/101884895/sys_time.o
 .text.SYS_TIME_TimerStop
                0x0000000000000000       0x88 build/default/debug/_ext/101884895/sys_time.o
 .text.SYS_TIME_TimerCounterGet
                0x0000000000000000       0xc4 build/default/debug/_ext/101884895/sys_time.o
 .text.SYS_TIME_TimerPeriodHasExpired
                0x0000000000000000       0x5c build/default/debug/_ext/101884895/sys_time.o
 .text.SYS_TIME_DelayUS
                0x0000000000000000       0xa0 build/default/debug/_ext/101884895/sys_time.o
 .text.SYS_TIME_DelayMS
                0x0000000000000000       0x9c build/default/debug/_ext/101884895/sys_time.o
 .text.SYS_TIME_DelayIsComplete
                0x0000000000000000       0x48 build/default/debug/_ext/101884895/sys_time.o
 .text.SYS_TIME_CallbackRegisterUS
                0x0000000000000000       0xb0 build/default/debug/_ext/101884895/sys_time.o
 .text.SYS_TIME_CallbackRegisterMS
                0x0000000000000000       0xac build/default/debug/_ext/101884895/sys_time.o
 .text          0x0000000000000000        0x0 build/default/debug/_ext/1171490990/initialization.o
 .data          0x0000000000000000        0x0 build/default/debug/_ext/1171490990/initialization.o
 .bss           0x0000000000000000        0x0 build/default/debug/_ext/1171490990/initialization.o
 .reginfo       0x0000000000000000       0x18 build/default/debug/_ext/1171490990/initialization.o
 .MIPS.abiflags
                0x0000000000000000       0x18 build/default/debug/_ext/1171490990/initialization.o
 .text          0x0000000000000000        0x0 build/default/debug/_ext/1171490990/interrupts.o
 .data          0x0000000000000000        0x0 build/default/debug/_ext/1171490990/interrupts.o
 .bss           0x0000000000000000        0x0 build/default/debug/_ext/1171490990/interrupts.o
 .reginfo       0x0000000000000000       0x18 build/default/debug/_ext/1171490990/interrupts.o
 .MIPS.abiflags
                0x0000000000000000       0x18 build/default/debug/_ext/1171490990/interrupts.o
 .text          0x0000000000000000        0x0 build/default/debug/_ext/1171490990/exceptions.o
 .data          0x0000000000000000        0x0 build/default/debug/_ext/1171490990/exceptions.o
 .bss           0x0000000000000000        0x0 build/default/debug/_ext/1171490990/exceptions.o
 .reginfo       0x0000000000000000       0x18 build/default/debug/_ext/1171490990/exceptions.o
 .MIPS.abiflags
                0x0000000000000000       0x18 build/default/debug/_ext/1171490990/exceptions.o
 .text          0x0000000000000000        0x0 build/default/debug/_ext/1171490990/interrupts_a.o
 .data          0x0000000000000000        0x0 build/default/debug/_ext/1171490990/interrupts_a.o
 .bss           0x0000000000000000        0x0 build/default/debug/_ext/1171490990/interrupts_a.o
 .reginfo       0x0000000000000000       0x18 build/default/debug/_ext/1171490990/interrupts_a.o
 .MIPS.abiflags
                0x0000000000000000       0x18 build/default/debug/_ext/1171490990/interrupts_a.o
 .text          0x0000000000000000        0x0 build/default/debug/_ext/1171490990/freertos_hooks.o
 .data          0x0000000000000000        0x0 build/default/debug/_ext/1171490990/freertos_hooks.o
 .bss           0x0000000000000000        0x0 build/default/debug/_ext/1171490990/freertos_hooks.o
 .reginfo       0x0000000000000000       0x18 build/default/debug/_ext/1171490990/freertos_hooks.o
 .MIPS.abiflags
                0x0000000000000000       0x18 build/default/debug/_ext/1171490990/freertos_hooks.o
 .text.vApplicationIdleHook
                0x0000000000000000        0x8 build/default/debug/_ext/1171490990/freertos_hooks.o
 .text.vApplicationTickHook
                0x0000000000000000        0x8 build/default/debug/_ext/1171490990/freertos_hooks.o
 .text.vAssertCalled
                0x0000000000000000       0x40 build/default/debug/_ext/1171490990/freertos_hooks.o
 .text          0x0000000000000000        0x0 build/default/debug/_ext/1171490990/tasks.o
 .data          0x0000000000000000        0x0 build/default/debug/_ext/1171490990/tasks.o
 .bss           0x0000000000000000        0x0 build/default/debug/_ext/1171490990/tasks.o
 .reginfo       0x0000000000000000       0x18 build/default/debug/_ext/1171490990/tasks.o
 .MIPS.abiflags
                0x0000000000000000       0x18 build/default/debug/_ext/1171490990/tasks.o
 .text          0x0000000000000000        0x0 build/default/debug/_ext/1360937237/GNSStasks.o
 .data          0x0000000000000000        0x0 build/default/debug/_ext/1360937237/GNSStasks.o
 .reginfo       0x0000000000000000       0x18 build/default/debug/_ext/1360937237/GNSStasks.o
 .MIPS.abiflags
                0x0000000000000000       0x18 build/default/debug/_ext/1360937237/GNSStasks.o
 .text.vTaskSendUBXheartbeat_Init
                0x0000000000000000        0x8 build/default/debug/_ext/1360937237/GNSStasks.o
 .text          0x0000000000000000        0x0 build/default/debug/_ext/1665200909/heap_1.o
 .data          0x0000000000000000        0x0 build/default/debug/_ext/1665200909/heap_1.o
 .reginfo       0x0000000000000000       0x18 build/default/debug/_ext/1665200909/heap_1.o
 .MIPS.abiflags
                0x0000000000000000       0x18 build/default/debug/_ext/1665200909/heap_1.o
 .text.vPortInitialiseBlocks
                0x0000000000000000        0x8 build/default/debug/_ext/1665200909/heap_1.o
 .text.xPortGetFreeHeapSize
                0x0000000000000000       0x10 build/default/debug/_ext/1665200909/heap_1.o
 .text          0x0000000000000000        0x0 build/default/debug/_ext/951553261/port.o
 .data          0x0000000000000000        0x0 build/default/debug/_ext/951553261/port.o
 .reginfo       0x0000000000000000       0x18 build/default/debug/_ext/951553261/port.o
 .MIPS.abiflags
                0x0000000000000000       0x18 build/default/debug/_ext/951553261/port.o
 .text.vPortEndScheduler
                0x0000000000000000       0x3c build/default/debug/_ext/951553261/port.o
 .data          0x0000000000000000        0x0 build/default/debug/_ext/951553261/port_asm.o
 .bss           0x0000000000000000        0x0 build/default/debug/_ext/951553261/port_asm.o
 .reginfo       0x0000000000000000       0x18 build/default/debug/_ext/951553261/port_asm.o
 .MIPS.abiflags
                0x0000000000000000       0x18 build/default/debug/_ext/951553261/port_asm.o
 .text          0x0000000000000000        0x0 build/default/debug/_ext/404212886/croutine.o
 .data          0x0000000000000000        0x0 build/default/debug/_ext/404212886/croutine.o
 .bss           0x0000000000000000        0x0 build/default/debug/_ext/404212886/croutine.o
 .reginfo       0x0000000000000000       0x18 build/default/debug/_ext/404212886/croutine.o
 .MIPS.abiflags
                0x0000000000000000       0x18 build/default/debug/_ext/404212886/croutine.o
 .text          0x0000000000000000        0x0 build/default/debug/_ext/404212886/list.o
 .data          0x0000000000000000        0x0 build/default/debug/_ext/404212886/list.o
 .bss           0x0000000000000000        0x0 build/default/debug/_ext/404212886/list.o
 .reginfo       0x0000000000000000       0x18 build/default/debug/_ext/404212886/list.o
 .MIPS.abiflags
                0x0000000000000000       0x18 build/default/debug/_ext/404212886/list.o
 .text          0x0000000000000000        0x0 build/default/debug/_ext/404212886/queue.o
 .data          0x0000000000000000        0x0 build/default/debug/_ext/404212886/queue.o
 .bss           0x0000000000000000        0x0 build/default/debug/_ext/404212886/queue.o
 .reginfo       0x0000000000000000       0x18 build/default/debug/_ext/404212886/queue.o
 .MIPS.abiflags
                0x0000000000000000       0x18 build/default/debug/_ext/404212886/queue.o
 .text.xQueueCreateCountingSemaphore
                0x0000000000000000       0x78 build/default/debug/_ext/404212886/queue.o
 .text.xQueueGenericSendFromISR
                0x0000000000000000      0x184 build/default/debug/_ext/404212886/queue.o
 .text.xQueueGiveFromISR
                0x0000000000000000      0x134 build/default/debug/_ext/404212886/queue.o
 .text.xQueuePeek
                0x0000000000000000      0x238 build/default/debug/_ext/404212886/queue.o
 .text.xQueueReceiveFromISR
                0x0000000000000000      0x130 build/default/debug/_ext/404212886/queue.o
 .text.xQueuePeekFromISR
                0x0000000000000000       0xe4 build/default/debug/_ext/404212886/queue.o
 .text.uxQueueMessagesWaiting
                0x0000000000000000       0x54 build/default/debug/_ext/404212886/queue.o
 .text.uxQueueSpacesAvailable
                0x0000000000000000       0x58 build/default/debug/_ext/404212886/queue.o
 .text.uxQueueMessagesWaitingFromISR
                0x0000000000000000       0x38 build/default/debug/_ext/404212886/queue.o
 .text.vQueueDelete
                0x0000000000000000       0x3c build/default/debug/_ext/404212886/queue.o
 .text.xQueueIsQueueEmptyFromISR
                0x0000000000000000       0x38 build/default/debug/_ext/404212886/queue.o
 .text.xQueueIsQueueFullFromISR
                0x0000000000000000       0x40 build/default/debug/_ext/404212886/queue.o
 .text          0x0000000000000000        0x0 build/default/debug/_ext/404212886/FreeRTOS_tasks.o
 .data          0x0000000000000000        0x0 build/default/debug/_ext/404212886/FreeRTOS_tasks.o
 .reginfo       0x0000000000000000       0x18 build/default/debug/_ext/404212886/FreeRTOS_tasks.o
 .MIPS.abiflags
                0x0000000000000000       0x18 build/default/debug/_ext/404212886/FreeRTOS_tasks.o
 .text.uxTaskPriorityGetFromISR
                0x0000000000000000       0x48 build/default/debug/_ext/404212886/FreeRTOS_tasks.o
 .text.prvTaskIsTaskSuspended
                0x0000000000000000       0x60 build/default/debug/_ext/404212886/FreeRTOS_tasks.o
 .text.vTaskEndScheduler
                0x0000000000000000       0x34 build/default/debug/_ext/404212886/FreeRTOS_tasks.o
 .text.xTaskGetTickCount
                0x0000000000000000        0xc build/default/debug/_ext/404212886/FreeRTOS_tasks.o
 .text.xTaskGetTickCountFromISR
                0x0000000000000000        0xc build/default/debug/_ext/404212886/FreeRTOS_tasks.o
 .text.uxTaskGetNumberOfTasks
                0x0000000000000000        0xc build/default/debug/_ext/404212886/FreeRTOS_tasks.o
 .text.pcTaskGetName
                0x0000000000000000       0x4c build/default/debug/_ext/404212886/FreeRTOS_tasks.o
 .text.vTaskRemoveFromUnorderedEventList
                0x0000000000000000       0xe4 build/default/debug/_ext/404212886/FreeRTOS_tasks.o
 .text.xTaskGetCurrentTaskHandle
                0x0000000000000000        0xc build/default/debug/_ext/404212886/FreeRTOS_tasks.o
 .text.vTaskDelete
                0x0000000000000000      0x154 build/default/debug/_ext/404212886/FreeRTOS_tasks.o
 .text.uxTaskPriorityGet
                0x0000000000000000       0x44 build/default/debug/_ext/404212886/FreeRTOS_tasks.o
 .text.vTaskPrioritySet
                0x0000000000000000      0x190 build/default/debug/_ext/404212886/FreeRTOS_tasks.o
 .text.vTaskSuspend
                0x0000000000000000      0x188 build/default/debug/_ext/404212886/FreeRTOS_tasks.o
 .text.vTaskResume
                0x0000000000000000       0xe0 build/default/debug/_ext/404212886/FreeRTOS_tasks.o
 .text.xTaskCatchUpTicks
                0x0000000000000000       0x60 build/default/debug/_ext/404212886/FreeRTOS_tasks.o
 .text.vTaskSetTimeOutState
                0x0000000000000000       0x58 build/default/debug/_ext/404212886/FreeRTOS_tasks.o
 .text.uxTaskResetEventItemValue
                0x0000000000000000       0x24 build/default/debug/_ext/404212886/FreeRTOS_tasks.o
 .text.xTaskGenericNotify
                0x0000000000000000      0x1e0 build/default/debug/_ext/404212886/FreeRTOS_tasks.o
 .text.xTaskGenericNotifyFromISR
                0x0000000000000000      0x218 build/default/debug/_ext/404212886/FreeRTOS_tasks.o
 .text.xTaskNotifyStateClear
                0x0000000000000000       0x6c build/default/debug/_ext/404212886/FreeRTOS_tasks.o
 .text.ulTaskNotifyValueClear
                0x0000000000000000       0x70 build/default/debug/_ext/404212886/FreeRTOS_tasks.o
 .text.vTaskDelayUntil
                0x0000000000000000      0x114 build/default/debug/_ext/404212886/FreeRTOS_tasks.o
 .text.vTaskPlaceOnUnorderedEventList
                0x0000000000000000       0x8c build/default/debug/_ext/404212886/FreeRTOS_tasks.o
 .text.xTaskNotifyWait
                0x0000000000000000      0x114 build/default/debug/_ext/404212886/FreeRTOS_tasks.o
 .text          0x0000000000000000        0x0 build/default/debug/_ext/404212886/timers.o
 .data          0x0000000000000000        0x0 build/default/debug/_ext/404212886/timers.o
 .bss           0x0000000000000000        0x0 build/default/debug/_ext/404212886/timers.o
 .reginfo       0x0000000000000000       0x18 build/default/debug/_ext/404212886/timers.o
 .MIPS.abiflags
                0x0000000000000000       0x18 build/default/debug/_ext/404212886/timers.o
 .text          0x0000000000000000        0x0 build/default/debug/_ext/404212886/event_groups.o
 .data          0x0000000000000000        0x0 build/default/debug/_ext/404212886/event_groups.o
 .bss           0x0000000000000000        0x0 build/default/debug/_ext/404212886/event_groups.o
 .reginfo       0x0000000000000000       0x18 build/default/debug/_ext/404212886/event_groups.o
 .MIPS.abiflags
                0x0000000000000000       0x18 build/default/debug/_ext/404212886/event_groups.o
 .text.xEventGroupCreate
                0x0000000000000000       0x3c build/default/debug/_ext/404212886/event_groups.o
 .text.xEventGroupWaitBits
                0x0000000000000000      0x1dc build/default/debug/_ext/404212886/event_groups.o
 .text.xEventGroupClearBits
                0x0000000000000000       0x98 build/default/debug/_ext/404212886/event_groups.o
 .text.xEventGroupGetBitsFromISR
                0x0000000000000000       0x34 build/default/debug/_ext/404212886/event_groups.o
 .text.xEventGroupSetBits
                0x0000000000000000      0x138 build/default/debug/_ext/404212886/event_groups.o
 .text.xEventGroupSync
                0x0000000000000000      0x16c build/default/debug/_ext/404212886/event_groups.o
 .text.vEventGroupDelete
                0x0000000000000000       0x90 build/default/debug/_ext/404212886/event_groups.o
 .text.vEventGroupSetBitsCallback
                0x0000000000000000       0x1c build/default/debug/_ext/404212886/event_groups.o
 .text.vEventGroupClearBitsCallback
                0x0000000000000000       0x1c build/default/debug/_ext/404212886/event_groups.o
 .text          0x0000000000000000        0x0 build/default/debug/_ext/404212886/stream_buffer.o
 .data          0x0000000000000000        0x0 build/default/debug/_ext/404212886/stream_buffer.o
 .bss           0x0000000000000000        0x0 build/default/debug/_ext/404212886/stream_buffer.o
 .reginfo       0x0000000000000000       0x18 build/default/debug/_ext/404212886/stream_buffer.o
 .MIPS.abiflags
                0x0000000000000000       0x18 build/default/debug/_ext/404212886/stream_buffer.o
 .text.prvBytesInBuffer
                0x0000000000000000       0x28 build/default/debug/_ext/404212886/stream_buffer.o
 .text.prvWriteBytesToBuffer
                0x0000000000000000      0x118 build/default/debug/_ext/404212886/stream_buffer.o
 .text.prvReadBytesFromBuffer
                0x0000000000000000      0x134 build/default/debug/_ext/404212886/stream_buffer.o
 .text.xStreamBufferGenericCreate
                0x0000000000000000       0xf8 build/default/debug/_ext/404212886/stream_buffer.o
 .text.vStreamBufferDelete
                0x0000000000000000       0x5c build/default/debug/_ext/404212886/stream_buffer.o
 .text.xStreamBufferReset
                0x0000000000000000       0xbc build/default/debug/_ext/404212886/stream_buffer.o
 .text.xStreamBufferSetTriggerLevel
                0x0000000000000000       0x50 build/default/debug/_ext/404212886/stream_buffer.o
 .text.xStreamBufferSpacesAvailable
                0x0000000000000000       0x58 build/default/debug/_ext/404212886/stream_buffer.o
 .text.xStreamBufferBytesAvailable
                0x0000000000000000       0x3c build/default/debug/_ext/404212886/stream_buffer.o
 .text.xStreamBufferSend
                0x0000000000000000      0x248 build/default/debug/_ext/404212886/stream_buffer.o
 .text.xStreamBufferSendFromISR
                0x0000000000000000      0x160 build/default/debug/_ext/404212886/stream_buffer.o
 .text.xStreamBufferReceive
                0x0000000000000000      0x1ec build/default/debug/_ext/404212886/stream_buffer.o
 .text.xStreamBufferNextMessageLengthBytes
                0x0000000000000000       0xb4 build/default/debug/_ext/404212886/stream_buffer.o
 .text.xStreamBufferReceiveFromISR
                0x0000000000000000      0x164 build/default/debug/_ext/404212886/stream_buffer.o
 .text.xStreamBufferIsEmpty
                0x0000000000000000       0x40 build/default/debug/_ext/404212886/stream_buffer.o
 .text.xStreamBufferIsFull
                0x0000000000000000       0x54 build/default/debug/_ext/404212886/stream_buffer.o
 .text.xStreamBufferSendCompletedFromISR
                0x0000000000000000       0x9c build/default/debug/_ext/404212886/stream_buffer.o
 .text.xStreamBufferReceiveCompletedFromISR
                0x0000000000000000       0x9c build/default/debug/_ext/404212886/stream_buffer.o
 .text          0x0000000000000000        0x0 build/default/debug/_ext/1360937237/main_pic32mk.o
 .data          0x0000000000000000        0x0 build/default/debug/_ext/1360937237/main_pic32mk.o
 .bss           0x0000000000000000        0x0 build/default/debug/_ext/1360937237/main_pic32mk.o
 .reginfo       0x0000000000000000       0x18 build/default/debug/_ext/1360937237/main_pic32mk.o
 .MIPS.abiflags
                0x0000000000000000       0x18 build/default/debug/_ext/1360937237/main_pic32mk.o
 .text          0x0000000000000000        0x0 C:\Users\rkucb\AppData\Local\Temp\ccMUkNN3.o
 .data          0x0000000000000000        0x0 C:\Users\rkucb\AppData\Local\Temp\ccMUkNN3.o
 .bss           0x0000000000000000        0x0 C:\Users\rkucb\AppData\Local\Temp\ccMUkNN3.o
 .reginfo       0x0000000000000000       0x18 C:\Users\rkucb\AppData\Local\Temp\ccMUkNN3.o
 .MIPS.abiflags
                0x0000000000000000       0x18 C:\Users\rkucb\AppData\Local\Temp\ccMUkNN3.o
 .text          0x0000000000000000        0x0 C:\Users\rkucb\AppData\Local\Temp\cci6bx1n.o
 .data          0x0000000000000000        0x0 C:\Users\rkucb\AppData\Local\Temp\cci6bx1n.o
 .bss           0x0000000000000000        0x0 C:\Users\rkucb\AppData\Local\Temp\cci6bx1n.o
 .reginfo       0x0000000000000000       0x18 C:\Users\rkucb\AppData\Local\Temp\cci6bx1n.o
 .MIPS.abiflags
                0x0000000000000000       0x18 C:\Users\rkucb\AppData\Local\Temp\cci6bx1n.o
 .text          0x0000000000000000        0x0 C:\Users\rkucb\AppData\Local\Temp\ccE6xSL3.o
 .data          0x0000000000000000        0x0 C:\Users\rkucb\AppData\Local\Temp\ccE6xSL3.o
 .bss           0x0000000000000000        0x0 C:\Users\rkucb\AppData\Local\Temp\ccE6xSL3.o
 .reginfo       0x0000000000000000       0x18 C:\Users\rkucb\AppData\Local\Temp\ccE6xSL3.o
 .MIPS.abiflags
                0x0000000000000000       0x18 C:\Users\rkucb\AppData\Local\Temp\ccE6xSL3.o
 .text          0x0000000000000000        0x0 C:\Users\rkucb\AppData\Local\Temp\ccaM0Zr1.o
 .data          0x0000000000000000        0x0 C:\Users\rkucb\AppData\Local\Temp\ccaM0Zr1.o
 .bss           0x0000000000000000        0x0 C:\Users\rkucb\AppData\Local\Temp\ccaM0Zr1.o
 .reginfo       0x0000000000000000       0x18 C:\Users\rkucb\AppData\Local\Temp\ccaM0Zr1.o
 .MIPS.abiflags
                0x0000000000000000       0x18 C:\Users\rkucb\AppData\Local\Temp\ccaM0Zr1.o
 .discard       0x0000000000000000        0x4 C:\Users\rkucb\AppData\Local\Temp\ccaM0Zr1.o
 .data          0x0000000000000000        0x0 c:/program files/microchip/xc32/v4.00/bin/bin/../../lib/gcc/pic32mx/8.3.1/../../../../pic32mx/lib/fpu64\pic32_software_reset.o
 .bss           0x0000000000000000        0x0 c:/program files/microchip/xc32/v4.00/bin/bin/../../lib/gcc/pic32mx/8.3.1/../../../../pic32mx/lib/fpu64\pic32_software_reset.o
 .reginfo       0x0000000000000000       0x18 c:/program files/microchip/xc32/v4.00/bin/bin/../../lib/gcc/pic32mx/8.3.1/../../../../pic32mx/lib/fpu64\pic32_software_reset.o
 .MIPS.abiflags
                0x0000000000000000       0x18 c:/program files/microchip/xc32/v4.00/bin/bin/../../lib/gcc/pic32mx/8.3.1/../../../../pic32mx/lib/fpu64\pic32_software_reset.o
 .xc_stack_usage.hdr
                0x0000000000000000        0xe c:/program files/microchip/xc32/v4.00/bin/bin/../../lib/gcc/pic32mx/8.3.1/../../../../pic32mx/lib/fpu64\pic32_software_reset.o
 .xc_stack_usage
                0x0000000000000000       0x24 c:/program files/microchip/xc32/v4.00/bin/bin/../../lib/gcc/pic32mx/8.3.1/../../../../pic32mx/lib/fpu64\pic32_software_reset.o
 .text          0x0000000000000000      0x3ec c:/program files/microchip/xc32/v4.00/bin/bin/../../lib/gcc/pic32mx/8.3.1/fpu64\libgcc.a(_udivdi3.o)
 .data          0x0000000000000000        0x0 c:/program files/microchip/xc32/v4.00/bin/bin/../../lib/gcc/pic32mx/8.3.1/fpu64\libgcc.a(_udivdi3.o)
 .bss           0x0000000000000000        0x0 c:/program files/microchip/xc32/v4.00/bin/bin/../../lib/gcc/pic32mx/8.3.1/fpu64\libgcc.a(_udivdi3.o)
 .reginfo       0x0000000000000000       0x18 c:/program files/microchip/xc32/v4.00/bin/bin/../../lib/gcc/pic32mx/8.3.1/fpu64\libgcc.a(_udivdi3.o)
 .MIPS.abiflags
                0x0000000000000000       0x18 c:/program files/microchip/xc32/v4.00/bin/bin/../../lib/gcc/pic32mx/8.3.1/fpu64\libgcc.a(_udivdi3.o)
 .xc_stack_usage
                0x0000000000000000       0x17 c:/program files/microchip/xc32/v4.00/bin/bin/../../lib/gcc/pic32mx/8.3.1/fpu64\libgcc.a(_udivdi3.o)
 .xc_stack_usage.hdr
                0x0000000000000000        0xe c:/program files/microchip/xc32/v4.00/bin/bin/../../lib/gcc/pic32mx/8.3.1/fpu64\libgcc.a(_udivdi3.o)
 .data          0x0000000000000000        0x0 c:/program files/microchip/xc32/v4.00/bin/bin/../../lib/gcc/pic32mx/8.3.1/../../../../pic32mx/lib/fpu64\libpic32.a(memcpy.o)
 .bss           0x0000000000000000        0x0 c:/program files/microchip/xc32/v4.00/bin/bin/../../lib/gcc/pic32mx/8.3.1/../../../../pic32mx/lib/fpu64\libpic32.a(memcpy.o)
 .reginfo       0x0000000000000000       0x18 c:/program files/microchip/xc32/v4.00/bin/bin/../../lib/gcc/pic32mx/8.3.1/../../../../pic32mx/lib/fpu64\libpic32.a(memcpy.o)
 .MIPS.abiflags
                0x0000000000000000       0x18 c:/program files/microchip/xc32/v4.00/bin/bin/../../lib/gcc/pic32mx/8.3.1/../../../../pic32mx/lib/fpu64\libpic32.a(memcpy.o)
 .xc_stack_usage.hdr
                0x0000000000000000        0xe c:/program files/microchip/xc32/v4.00/bin/bin/../../lib/gcc/pic32mx/8.3.1/../../../../pic32mx/lib/fpu64\libpic32.a(memcpy.o)
 .xc_stack_usage
                0x0000000000000000       0x14 c:/program files/microchip/xc32/v4.00/bin/bin/../../lib/gcc/pic32mx/8.3.1/../../../../pic32mx/lib/fpu64\libpic32.a(memcpy.o)
 .data          0x0000000000000000        0x0 c:/program files/microchip/xc32/v4.00/bin/bin/../../lib/gcc/pic32mx/8.3.1/../../../../pic32mx/lib/fpu64\libpic32.a(memset.o)
 .bss           0x0000000000000000        0x0 c:/program files/microchip/xc32/v4.00/bin/bin/../../lib/gcc/pic32mx/8.3.1/../../../../pic32mx/lib/fpu64\libpic32.a(memset.o)
 .reginfo       0x0000000000000000       0x18 c:/program files/microchip/xc32/v4.00/bin/bin/../../lib/gcc/pic32mx/8.3.1/../../../../pic32mx/lib/fpu64\libpic32.a(memset.o)
 .MIPS.abiflags
                0x0000000000000000       0x18 c:/program files/microchip/xc32/v4.00/bin/bin/../../lib/gcc/pic32mx/8.3.1/../../../../pic32mx/lib/fpu64\libpic32.a(memset.o)
 .xc_stack_usage.hdr
                0x0000000000000000        0xe c:/program files/microchip/xc32/v4.00/bin/bin/../../lib/gcc/pic32mx/8.3.1/../../../../pic32mx/lib/fpu64\libpic32.a(memset.o)
 .xc_stack_usage
                0x0000000000000000       0x14 c:/program files/microchip/xc32/v4.00/bin/bin/../../lib/gcc/pic32mx/8.3.1/../../../../pic32mx/lib/fpu64\libpic32.a(memset.o)
 .text          0x0000000000000000        0x0 c:/program files/microchip/xc32/v4.00/bin/bin/../../lib/gcc/pic32mx/8.3.1/../../../../pic32mx/lib/fpu64\libpic32.a(default-on-reset.o)
 .data          0x0000000000000000        0x0 c:/program files/microchip/xc32/v4.00/bin/bin/../../lib/gcc/pic32mx/8.3.1/../../../../pic32mx/lib/fpu64\libpic32.a(default-on-reset.o)
 .bss           0x0000000000000000        0x0 c:/program files/microchip/xc32/v4.00/bin/bin/../../lib/gcc/pic32mx/8.3.1/../../../../pic32mx/lib/fpu64\libpic32.a(default-on-reset.o)
 .reginfo       0x0000000000000000       0x18 c:/program files/microchip/xc32/v4.00/bin/bin/../../lib/gcc/pic32mx/8.3.1/../../../../pic32mx/lib/fpu64\libpic32.a(default-on-reset.o)
 .MIPS.abiflags
                0x0000000000000000       0x18 c:/program files/microchip/xc32/v4.00/bin/bin/../../lib/gcc/pic32mx/8.3.1/../../../../pic32mx/lib/fpu64\libpic32.a(default-on-reset.o)
 .xc_stack_usage
                0x0000000000000000       0x17 c:/program files/microchip/xc32/v4.00/bin/bin/../../lib/gcc/pic32mx/8.3.1/../../../../pic32mx/lib/fpu64\libpic32.a(default-on-reset.o)
 .xc_stack_usage.hdr
                0x0000000000000000        0xe c:/program files/microchip/xc32/v4.00/bin/bin/../../lib/gcc/pic32mx/8.3.1/../../../../pic32mx/lib/fpu64\libpic32.a(default-on-reset.o)
 .text          0x0000000000000000        0x0 c:/program files/microchip/xc32/v4.00/bin/bin/../../lib/gcc/pic32mx/8.3.1/../../../../pic32mx/lib/fpu64\libpic32.a(default-on-bootstrap.o)
 .data          0x0000000000000000        0x0 c:/program files/microchip/xc32/v4.00/bin/bin/../../lib/gcc/pic32mx/8.3.1/../../../../pic32mx/lib/fpu64\libpic32.a(default-on-bootstrap.o)
 .bss           0x0000000000000000        0x0 c:/program files/microchip/xc32/v4.00/bin/bin/../../lib/gcc/pic32mx/8.3.1/../../../../pic32mx/lib/fpu64\libpic32.a(default-on-bootstrap.o)
 .reginfo       0x0000000000000000       0x18 c:/program files/microchip/xc32/v4.00/bin/bin/../../lib/gcc/pic32mx/8.3.1/../../../../pic32mx/lib/fpu64\libpic32.a(default-on-bootstrap.o)
 .MIPS.abiflags
                0x0000000000000000       0x18 c:/program files/microchip/xc32/v4.00/bin/bin/../../lib/gcc/pic32mx/8.3.1/../../../../pic32mx/lib/fpu64\libpic32.a(default-on-bootstrap.o)
 .xc_stack_usage
                0x0000000000000000       0x1b c:/program files/microchip/xc32/v4.00/bin/bin/../../lib/gcc/pic32mx/8.3.1/../../../../pic32mx/lib/fpu64\libpic32.a(default-on-bootstrap.o)
 .xc_stack_usage.hdr
                0x0000000000000000        0xe c:/program files/microchip/xc32/v4.00/bin/bin/../../lib/gcc/pic32mx/8.3.1/../../../../pic32mx/lib/fpu64\libpic32.a(default-on-bootstrap.o)
 .data          0x0000000000000000        0x0 c:/program files/microchip/xc32/v4.00/bin/bin/../../lib/gcc/pic32mx/8.3.1/../../../../pic32mx/lib/fpu64\libpic32.a(default-nmi-handler.o)
 .bss           0x0000000000000000        0x0 c:/program files/microchip/xc32/v4.00/bin/bin/../../lib/gcc/pic32mx/8.3.1/../../../../pic32mx/lib/fpu64\libpic32.a(default-nmi-handler.o)
 .reginfo       0x0000000000000000       0x18 c:/program files/microchip/xc32/v4.00/bin/bin/../../lib/gcc/pic32mx/8.3.1/../../../../pic32mx/lib/fpu64\libpic32.a(default-nmi-handler.o)
 .MIPS.abiflags
                0x0000000000000000       0x18 c:/program files/microchip/xc32/v4.00/bin/bin/../../lib/gcc/pic32mx/8.3.1/../../../../pic32mx/lib/fpu64\libpic32.a(default-nmi-handler.o)
 .xc_stack_usage.hdr
                0x0000000000000000        0xe c:/program files/microchip/xc32/v4.00/bin/bin/../../lib/gcc/pic32mx/8.3.1/../../../../pic32mx/lib/fpu64\libpic32.a(default-nmi-handler.o)
 .xc_stack_usage
                0x0000000000000000       0x1a c:/program files/microchip/xc32/v4.00/bin/bin/../../lib/gcc/pic32mx/8.3.1/../../../../pic32mx/lib/fpu64\libpic32.a(default-nmi-handler.o)
 .data          0x0000000000000000        0x0 c:/program files/microchip/xc32/v4.00/bin/bin/../../lib/gcc/pic32mx/8.3.1/../../../../pic32mx/lib/fpu64\libpic32.a(pic32_data_init.o)
 .bss           0x0000000000000000        0x0 c:/program files/microchip/xc32/v4.00/bin/bin/../../lib/gcc/pic32mx/8.3.1/../../../../pic32mx/lib/fpu64\libpic32.a(pic32_data_init.o)
 .reginfo       0x0000000000000000       0x18 c:/program files/microchip/xc32/v4.00/bin/bin/../../lib/gcc/pic32mx/8.3.1/../../../../pic32mx/lib/fpu64\libpic32.a(pic32_data_init.o)
 .MIPS.abiflags
                0x0000000000000000       0x18 c:/program files/microchip/xc32/v4.00/bin/bin/../../lib/gcc/pic32mx/8.3.1/../../../../pic32mx/lib/fpu64\libpic32.a(pic32_data_init.o)
 .xc_stack_usage.hdr
                0x0000000000000000        0xe c:/program files/microchip/xc32/v4.00/bin/bin/../../lib/gcc/pic32mx/8.3.1/../../../../pic32mx/lib/fpu64\libpic32.a(pic32_data_init.o)
 .xc_stack_usage
                0x0000000000000000       0x1f c:/program files/microchip/xc32/v4.00/bin/bin/../../lib/gcc/pic32mx/8.3.1/../../../../pic32mx/lib/fpu64\libpic32.a(pic32_data_init.o)
 .text          0x0000000000000000        0x0 c:/program files/microchip/xc32/v4.00/bin/bin/../../lib/gcc/pic32mx/8.3.1/../../../../pic32mx/lib/fpu64\libpic32.a(general-exception.o)
 .data          0x0000000000000000        0x0 c:/program files/microchip/xc32/v4.00/bin/bin/../../lib/gcc/pic32mx/8.3.1/../../../../pic32mx/lib/fpu64\libpic32.a(general-exception.o)
 .bss           0x0000000000000000        0x0 c:/program files/microchip/xc32/v4.00/bin/bin/../../lib/gcc/pic32mx/8.3.1/../../../../pic32mx/lib/fpu64\libpic32.a(general-exception.o)
 .reginfo       0x0000000000000000       0x18 c:/program files/microchip/xc32/v4.00/bin/bin/../../lib/gcc/pic32mx/8.3.1/../../../../pic32mx/lib/fpu64\libpic32.a(general-exception.o)
 .MIPS.abiflags
                0x0000000000000000       0x18 c:/program files/microchip/xc32/v4.00/bin/bin/../../lib/gcc/pic32mx/8.3.1/../../../../pic32mx/lib/fpu64\libpic32.a(general-exception.o)
 .xc_stack_usage.hdr
                0x0000000000000000        0xe c:/program files/microchip/xc32/v4.00/bin/bin/../../lib/gcc/pic32mx/8.3.1/../../../../pic32mx/lib/fpu64\libpic32.a(general-exception.o)
 .xc_stack_usage
                0x0000000000000000       0x28 c:/program files/microchip/xc32/v4.00/bin/bin/../../lib/gcc/pic32mx/8.3.1/../../../../pic32mx/lib/fpu64\libpic32.a(general-exception.o)
 .text          0x0000000000000000        0x0 c:/program files/microchip/xc32/v4.00/bin/bin/../../lib/gcc/pic32mx/8.3.1/../../../../pic32mx/lib/fpu64\libpic32.a(defaultinterrupt.o)
 .data          0x0000000000000000        0x0 c:/program files/microchip/xc32/v4.00/bin/bin/../../lib/gcc/pic32mx/8.3.1/../../../../pic32mx/lib/fpu64\libpic32.a(defaultinterrupt.o)
 .bss           0x0000000000000000        0x0 c:/program files/microchip/xc32/v4.00/bin/bin/../../lib/gcc/pic32mx/8.3.1/../../../../pic32mx/lib/fpu64\libpic32.a(defaultinterrupt.o)
 .reginfo       0x0000000000000000       0x18 c:/program files/microchip/xc32/v4.00/bin/bin/../../lib/gcc/pic32mx/8.3.1/../../../../pic32mx/lib/fpu64\libpic32.a(defaultinterrupt.o)
 .MIPS.abiflags
                0x0000000000000000       0x18 c:/program files/microchip/xc32/v4.00/bin/bin/../../lib/gcc/pic32mx/8.3.1/../../../../pic32mx/lib/fpu64\libpic32.a(defaultinterrupt.o)
 .xc_stack_usage
                0x0000000000000000       0x1f c:/program files/microchip/xc32/v4.00/bin/bin/../../lib/gcc/pic32mx/8.3.1/../../../../pic32mx/lib/fpu64\libpic32.a(defaultinterrupt.o)
 .xc_stack_usage.hdr
                0x0000000000000000        0xe c:/program files/microchip/xc32/v4.00/bin/bin/../../lib/gcc/pic32mx/8.3.1/../../../../pic32mx/lib/fpu64\libpic32.a(defaultinterrupt.o)

Memory Configuration

Name             Origin             Length             Attributes
kseg0_data_mem   0x0000000080000000 0x0000000000020000 w !x
kseg1_data_mem   0x00000000a0000000 0x0000000000000370
kseg0_program_mem 0x000000009d000000 0x0000000000080000 xr
kseg0_boot_mem   0x000000009fc20490 0x0000000000000000
debug_exec_mem   0x000000009fc20490 0x0000000000003aa0
kseg1_boot_mem   0x00000000bfc00000 0x0000000000000480
kseg1_boot_mem_4B0 0x00000000bfc004b0 0x0000000000003a80
config_BFC03F40  0x00000000bfc03f40 0x0000000000000004
config_BFC03F44  0x00000000bfc03f44 0x0000000000000004
config_BFC03F48  0x00000000bfc03f48 0x0000000000000004
config_BFC03F4C  0x00000000bfc03f4c 0x0000000000000004
config_BFC03F5C  0x00000000bfc03f5c 0x0000000000000004
config_BFC03F6C  0x00000000bfc03f6c 0x0000000000000004
config_BFC03F70  0x00000000bfc03f70 0x0000000000000004
config_BFC03FC0  0x00000000bfc03fc0 0x0000000000000004
config_BFC03FC4  0x00000000bfc03fc4 0x0000000000000004
config_BFC03FC8  0x00000000bfc03fc8 0x0000000000000004
config_BFC03FCC  0x00000000bfc03fcc 0x0000000000000004
config_BFC03FDC  0x00000000bfc03fdc 0x0000000000000004
config_BFC03FEC  0x00000000bfc03fec 0x0000000000000004
config_BFC03FF0  0x00000000bfc03ff0 0x0000000000000004
lowerbootaliaslastpage 0x00000000bfc04000 0x0000000000001000
upperbootalias   0x00000000bfc20000 0x0000000000003f30
config_BFC23F40  0x00000000bfc23f40 0x0000000000000004
config_BFC23F44  0x00000000bfc23f44 0x0000000000000004
config_BFC23F48  0x00000000bfc23f48 0x0000000000000004
config_BFC23F4C  0x00000000bfc23f4c 0x0000000000000004
config_BFC23F5C  0x00000000bfc23f5c 0x0000000000000004
config_BFC23F6C  0x00000000bfc23f6c 0x0000000000000004
config_BFC23F70  0x00000000bfc23f70 0x0000000000000004
config_BFC23FC0  0x00000000bfc23fc0 0x0000000000000004
config_BFC23FC4  0x00000000bfc23fc4 0x0000000000000004
config_BFC23FC8  0x00000000bfc23fc8 0x0000000000000004
config_BFC23FCC  0x00000000bfc23fcc 0x0000000000000004
config_BFC23FDC  0x00000000bfc23fdc 0x0000000000000004
config_BFC23FEC  0x00000000bfc23fec 0x0000000000000004
config_BFC23FF0  0x00000000bfc23ff0 0x0000000000000004
upperbootaliaslastpage 0x00000000bfc24000 0x0000000000001000
boot1            0x00000000bfc40000 0x0000000000003f30
config_BFC43F40  0x00000000bfc43f40 0x0000000000000004
config_BFC43F44  0x00000000bfc43f44 0x0000000000000004
config_BFC43F48  0x00000000bfc43f48 0x0000000000000004
config_BFC43F4C  0x00000000bfc43f4c 0x0000000000000004
config_BFC43F5C  0x00000000bfc43f5c 0x0000000000000004
config_BFC43F6C  0x00000000bfc43f6c 0x0000000000000004
config_BFC43F70  0x00000000bfc43f70 0x0000000000000004
config_BFC43FC0  0x00000000bfc43fc0 0x0000000000000004
config_BFC43FC4  0x00000000bfc43fc4 0x0000000000000004
config_BFC43FC8  0x00000000bfc43fc8 0x0000000000000004
config_BFC43FCC  0x00000000bfc43fcc 0x0000000000000004
config_BFC43FDC  0x00000000bfc43fdc 0x0000000000000004
config_BFC43FEC  0x00000000bfc43fec 0x0000000000000004
config_BFC43FF0  0x00000000bfc43ff0 0x0000000000000004
boot1lastpage    0x00000000bfc44000 0x0000000000001000
config_BFC45000  0x00000000bfc45000 0x0000000000000004
config_BFC45004  0x00000000bfc45004 0x0000000000000004
config_BFC45008  0x00000000bfc45008 0x0000000000000004
config_BFC4500C  0x00000000bfc4500c 0x0000000000000004
config_BFC45010  0x00000000bfc45010 0x0000000000000004
config_BFC45014  0x00000000bfc45014 0x0000000000000004
config_BFC45018  0x00000000bfc45018 0x0000000000000004
config_BFC45020  0x00000000bfc45020 0x0000000000000004
config_BFC45024  0x00000000bfc45024 0x0000000000000004
config_BFC45028  0x00000000bfc45028 0x0000000000000004
config_BFC4502C  0x00000000bfc4502c 0x0000000000000004
config_BFC45030  0x00000000bfc45030 0x0000000000000004
config_BFC45034  0x00000000bfc45034 0x0000000000000004
config_BFC45038  0x00000000bfc45038 0x0000000000000004
config_BFC4503C  0x00000000bfc4503c 0x0000000000000004
boot2            0x00000000bfc60000 0x0000000000003f30
config_BFC63F40  0x00000000bfc63f40 0x0000000000000004
config_BFC63F44  0x00000000bfc63f44 0x0000000000000004
config_BFC63F48  0x00000000bfc63f48 0x0000000000000004
config_BFC63F4C  0x00000000bfc63f4c 0x0000000000000004
config_BFC63F5C  0x00000000bfc63f5c 0x0000000000000004
config_BFC63F6C  0x00000000bfc63f6c 0x0000000000000004
config_BFC63F70  0x00000000bfc63f70 0x0000000000000004
config_BFC63FC0  0x00000000bfc63fc0 0x0000000000000004
config_BFC63FC4  0x00000000bfc63fc4 0x0000000000000004
config_BFC63FC8  0x00000000bfc63fc8 0x0000000000000004
config_BFC63FCC  0x00000000bfc63fcc 0x0000000000000004
config_BFC63FDC  0x00000000bfc63fdc 0x0000000000000004
config_BFC63FEC  0x00000000bfc63fec 0x0000000000000004
config_BFC63FF0  0x00000000bfc63ff0 0x0000000000000004
boot2lastpage    0x00000000bfc64000 0x0000000000001000
sfrs             0x00000000bf800000 0x0000000000100000
configsfrs_BFC03F30 0x00000000bfc03f30 0x000000000000001c
configsfrs_BFC03FB0 0x00000000bfc03fb0 0x000000000000001c
configsfrs_BFC23F30 0x00000000bfc23f30 0x000000000000001c
configsfrs_BFC23FB0 0x00000000bfc23fb0 0x000000000000001c
configsfrs_BFC43F30 0x00000000bfc43f30 0x000000000000001c
configsfrs_BFC43FB0 0x00000000bfc43fb0 0x000000000000001c
configsfrs_BFC45000 0x00000000bfc45000 0x000000000000001c
configsfrs_BFC45020 0x00000000bfc45020 0x0000000000000010
configsfrs_BFC45030 0x00000000bfc45030 0x0000000000000010
configsfrs_BFC63F30 0x00000000bfc63f30 0x000000000000001c
configsfrs_BFC63FB0 0x00000000bfc63fb0 0x000000000000001c
*default*        0x0000000000000000 0xffffffffffffffff

Linker script and memory map


reserve_data_0_kseg0
                0x0000000080000000      0x370
                0x0000000080000000        0x2 SHORT 0x0
                0x0000000000000370                . = 0x370
 *fill*         0x0000000080000002      0x36e 
                0x0000000080000370                . = ALIGN (0x4)

reserve_data_0_kseg1
                0x00000000a0000000      0x370
                0x00000000a0000000        0x2 SHORT 0x0
                0x0000000000000370                . = 0x370
 *fill*         0x00000000a0000002      0x36e 
                0x00000000a0000370                . = ALIGN (0x4)
LOAD c:/program files/microchip/xc32/v4.00/bin/bin/../../lib/gcc/pic32mx/8.3.1/../../../../pic32mx/lib/fpu64\software-debug-break.o
LOAD build/default/debug/_ext/1529399856/osal_freertos.o
LOAD build/default/debug/_ext/1984168316/plib_canfd1.o
LOAD build/default/debug/_ext/60165520/plib_clk.o
LOAD build/default/debug/_ext/1865161661/plib_dmac.o
LOAD build/default/debug/_ext/1865200349/plib_evic.o
LOAD build/default/debug/_ext/1865254177/plib_gpio.o
LOAD build/default/debug/_ext/60181895/plib_tmr2.o
LOAD build/default/debug/_ext/1865657120/plib_uart1.o
LOAD build/default/debug/_ext/163028504/xc32_monitor.o
LOAD build/default/debug/_ext/1881668453/sys_int.o
LOAD build/default/debug/_ext/101884895/sys_time.o
LOAD build/default/debug/_ext/1171490990/initialization.o
LOAD build/default/debug/_ext/1171490990/interrupts.o
LOAD build/default/debug/_ext/1171490990/exceptions.o
LOAD build/default/debug/_ext/1171490990/interrupts_a.o
LOAD build/default/debug/_ext/1171490990/freertos_hooks.o
LOAD build/default/debug/_ext/1171490990/tasks.o
LOAD build/default/debug/_ext/1360937237/GNSStasks.o
LOAD build/default/debug/_ext/1665200909/heap_1.o
LOAD build/default/debug/_ext/951553261/port.o
LOAD build/default/debug/_ext/951553261/port_asm.o
LOAD build/default/debug/_ext/404212886/croutine.o
LOAD build/default/debug/_ext/404212886/list.o
LOAD build/default/debug/_ext/404212886/queue.o
LOAD build/default/debug/_ext/404212886/FreeRTOS_tasks.o
LOAD build/default/debug/_ext/404212886/timers.o
LOAD build/default/debug/_ext/404212886/event_groups.o
LOAD build/default/debug/_ext/404212886/stream_buffer.o
LOAD build/default/debug/_ext/1360937237/main_pic32mk.o
                0x0000000000000001                __MPLAB_BUILD = 0x1
                0x0000000000000400                PROVIDE (_min_stack_size = 0x400)
START GROUP
LOAD vector_offset_init.o
END GROUP
                0x0000000000000001                PROVIDE (_vector_spacing = 0x1)
                0x000000009d000000                PROVIDE (_ebase_address = 0x9d000000)
                0x00000000bfc00000                _RESET_ADDR = 0xbfc00000
                0x00000000bfc00380                _BEV_EXCPT_ADDR = 0xbfc00380
                0x00000000bfc00480                _DBG_EXCPT_ADDR = 0xbfc00480
                0x000000009d000000                _SIMPLE_TLB_REFILL_EXCPT_ADDR = (_ebase_address + 0x0)
                0x000000009d000180                _GEN_EXCPT_ADDR = (_ebase_address + 0x180)

.config_BFC03F40
 *(.config_BFC03F40)

.config_BFC03F44
 *(.config_BFC03F44)

.config_BFC03F48
 *(.config_BFC03F48)

.config_BFC03F4C
 *(.config_BFC03F4C)

.config_BFC03F5C
 *(.config_BFC03F5C)

.config_BFC03F6C
 *(.config_BFC03F6C)

.config_BFC03F70
 *(.config_BFC03F70)

.config_BFC03FC0
                0x00000000bfc03fc0        0x4
 *(.config_BFC03FC0)
 .config_BFC03FC0
                0x00000000bfc03fc0        0x4 build/default/debug/_ext/1171490990/initialization.o
                0x00000000bfc03fc0                __config_BFC03FC0

.config_BFC03FC4
                0x00000000bfc03fc4        0x4
 *(.config_BFC03FC4)
 .config_BFC03FC4
                0x00000000bfc03fc4        0x4 build/default/debug/_ext/1171490990/initialization.o
                0x00000000bfc03fc4                __config_BFC03FC4

.config_BFC03FC8
                0x00000000bfc03fc8        0x4
 *(.config_BFC03FC8)
 .config_BFC03FC8
                0x00000000bfc03fc8        0x4 build/default/debug/_ext/1171490990/initialization.o
                0x00000000bfc03fc8                __config_BFC03FC8

.config_BFC03FCC
                0x00000000bfc03fcc        0x4
 *(.config_BFC03FCC)
 .config_BFC03FCC
                0x00000000bfc03fcc        0x4 build/default/debug/_ext/1171490990/initialization.o
                0x00000000bfc03fcc                __config_BFC03FCC

.config_BFC03FDC
 *(.config_BFC03FDC)

.config_BFC03FEC
 *(.config_BFC03FEC)

.config_BFC03FF0
                0x00000000bfc03ff0        0x4
 *(.config_BFC03FF0)
 .config_BFC03FF0
                0x00000000bfc03ff0        0x4 build/default/debug/_ext/1171490990/initialization.o
                0x00000000bfc03ff0                __config_BFC03FF0

.config_BFC23F40
 *(.config_BFC23F40)

.config_BFC23F44
 *(.config_BFC23F44)

.config_BFC23F48
 *(.config_BFC23F48)

.config_BFC23F4C
 *(.config_BFC23F4C)

.config_BFC23F5C
 *(.config_BFC23F5C)

.config_BFC23F6C
 *(.config_BFC23F6C)

.config_BFC23F70
 *(.config_BFC23F70)

.config_BFC23FC0
 *(.config_BFC23FC0)

.config_BFC23FC4
 *(.config_BFC23FC4)

.config_BFC23FC8
 *(.config_BFC23FC8)

.config_BFC23FCC
 *(.config_BFC23FCC)

.config_BFC23FDC
 *(.config_BFC23FDC)

.config_BFC23FEC
 *(.config_BFC23FEC)

.config_BFC23FF0
 *(.config_BFC23FF0)

.config_BFC43F40
 *(.config_BFC43F40)

.config_BFC43F44
 *(.config_BFC43F44)

.config_BFC43F48
 *(.config_BFC43F48)

.config_BFC43F4C
 *(.config_BFC43F4C)

.config_BFC43F5C
 *(.config_BFC43F5C)

.config_BFC43F6C
 *(.config_BFC43F6C)

.config_BFC43F70
 *(.config_BFC43F70)

.config_BFC43FC0
 *(.config_BFC43FC0)

.config_BFC43FC4
 *(.config_BFC43FC4)

.config_BFC43FC8
 *(.config_BFC43FC8)

.config_BFC43FCC
 *(.config_BFC43FCC)

.config_BFC43FDC
 *(.config_BFC43FDC)

.config_BFC43FEC
 *(.config_BFC43FEC)

.config_BFC43FF0
 *(.config_BFC43FF0)

.config_BFC45000
 *(.config_BFC45000)

.config_BFC45004
 *(.config_BFC45004)

.config_BFC45008
 *(.config_BFC45008)

.config_BFC4500C
 *(.config_BFC4500C)

.config_BFC45010
 *(.config_BFC45010)

.config_BFC45014
 *(.config_BFC45014)

.config_BFC45018
 *(.config_BFC45018)

.config_BFC45020
 *(.config_BFC45020)

.config_BFC45024
 *(.config_BFC45024)

.config_BFC45028
 *(.config_BFC45028)

.config_BFC4502C
 *(.config_BFC4502C)

.config_BFC45030
 *(.config_BFC45030)

.config_BFC45034
 *(.config_BFC45034)

.config_BFC45038
 *(.config_BFC45038)

.config_BFC4503C
 *(.config_BFC4503C)

.config_BFC63F40
 *(.config_BFC63F40)

.config_BFC63F44
 *(.config_BFC63F44)

.config_BFC63F48
 *(.config_BFC63F48)

.config_BFC63F4C
 *(.config_BFC63F4C)

.config_BFC63F5C
 *(.config_BFC63F5C)

.config_BFC63F6C
 *(.config_BFC63F6C)

.config_BFC63F70
 *(.config_BFC63F70)

.config_BFC63FC0
 *(.config_BFC63FC0)

.config_BFC63FC4
 *(.config_BFC63FC4)

.config_BFC63FC8
 *(.config_BFC63FC8)

.config_BFC63FCC
 *(.config_BFC63FCC)

.config_BFC63FDC
 *(.config_BFC63FDC)

.config_BFC63FEC
 *(.config_BFC63FEC)

.config_BFC63FF0
 *(.config_BFC63FF0)

.reset          0x00000000bfc00000      0x1a4
 *(.reset)
 .reset         0x00000000bfc00000       0x18 C:\Users\rkucb\AppData\Local\Temp\ccMUkNN3.o
                0x00000000bfc00000                _reset
 *(.reset.startup)
 .reset.startup
                0x00000000bfc00018      0x18c C:\Users\rkucb\AppData\Local\Temp\ccMUkNN3.o
                0x00000000bfc00018                _startup

.bev_excpt      0x00000000bfc00380       0x10
 *(.bev_handler)
 .bev_handler   0x00000000bfc00380       0x10 C:\Users\rkucb\AppData\Local\Temp\ccMUkNN3.o

.app_excpt      0x000000009d000180       0x10
 *(.gen_handler)
 .gen_handler   0x000000009d000180       0x10 C:\Users\rkucb\AppData\Local\Temp\ccMUkNN3.o

.vectors        0x000000009d000200     0x166c
                0x000000009d000200                . = ALIGN (0x4)
                0x0000000000001824                __vector_offset_0 = DEFINED (__vector_dispatch_0)?(. - _ebase_address):__vector_offset_default
 *(.vector_0)
                0x000000009d000200                . = ALIGN (0x4)
                0x0000000000000200                __vector_offset_1 = DEFINED (__vector_dispatch_1)?(. - _ebase_address):__vector_offset_default
 *(.vector_1)
 .vector_1      0x000000009d000200      0x258 build/default/debug/_ext/951553261/port_asm.o
                0x000000009d000200                __vector_dispatch_1
                0x000000009d000200                vPortYieldISR
                0x000000009d000458                . = ALIGN (0x4)
                0x0000000000001824                __vector_offset_2 = DEFINED (__vector_dispatch_2)?(. - _ebase_address):__vector_offset_default
 *(.vector_2)
                0x000000009d000458                . = ALIGN (0x4)
                0x0000000000001824                __vector_offset_3 = DEFINED (__vector_dispatch_3)?(. - _ebase_address):__vector_offset_default
 *(.vector_3)
                0x000000009d000458                . = ALIGN (0x4)
                0x0000000000000458                __vector_offset_4 = DEFINED (__vector_dispatch_4)?(. - _ebase_address):__vector_offset_default
 *(.vector_4)
 .vector_4      0x000000009d000458      0x22c build/default/debug/_ext/951553261/port_asm.o
                0x000000009d000458                vPortTickInterruptHandler
                0x000000009d000458                __vector_dispatch_4
                0x000000009d000684                . = ALIGN (0x4)
                0x0000000000001824                __vector_offset_5 = DEFINED (__vector_dispatch_5)?(. - _ebase_address):__vector_offset_default
 *(.vector_5)
                0x000000009d000684                . = ALIGN (0x4)
                0x0000000000001824                __vector_offset_6 = DEFINED (__vector_dispatch_6)?(. - _ebase_address):__vector_offset_default
 *(.vector_6)
                0x000000009d000684                . = ALIGN (0x4)
                0x0000000000001824                __vector_offset_7 = DEFINED (__vector_dispatch_7)?(. - _ebase_address):__vector_offset_default
 *(.vector_7)
                0x000000009d000684                . = ALIGN (0x4)
                0x0000000000001824                __vector_offset_8 = DEFINED (__vector_dispatch_8)?(. - _ebase_address):__vector_offset_default
 *(.vector_8)
                0x000000009d000684                . = ALIGN (0x4)
                0x0000000000000684                __vector_offset_9 = DEFINED (__vector_dispatch_9)?(. - _ebase_address):__vector_offset_default
 *(.vector_9)
 .vector_9      0x000000009d000684      0x234 build/default/debug/_ext/1171490990/interrupts_a.o
                0x000000009d000684                __vector_dispatch_9
                0x000000009d0008b8                . = ALIGN (0x4)
                0x0000000000001824                __vector_offset_10 = DEFINED (__vector_dispatch_10)?(. - _ebase_address):__vector_offset_default
 *(.vector_10)
                0x000000009d0008b8                . = ALIGN (0x4)
                0x0000000000001824                __vector_offset_11 = DEFINED (__vector_dispatch_11)?(. - _ebase_address):__vector_offset_default
 *(.vector_11)
                0x000000009d0008b8                . = ALIGN (0x4)
                0x0000000000001824                __vector_offset_12 = DEFINED (__vector_dispatch_12)?(. - _ebase_address):__vector_offset_default
 *(.vector_12)
                0x000000009d0008b8                . = ALIGN (0x4)
                0x0000000000001824                __vector_offset_13 = DEFINED (__vector_dispatch_13)?(. - _ebase_address):__vector_offset_default
 *(.vector_13)
                0x000000009d0008b8                . = ALIGN (0x4)
                0x0000000000001824                __vector_offset_14 = DEFINED (__vector_dispatch_14)?(. - _ebase_address):__vector_offset_default
 *(.vector_14)
                0x000000009d0008b8                . = ALIGN (0x4)
                0x0000000000001824                __vector_offset_15 = DEFINED (__vector_dispatch_15)?(. - _ebase_address):__vector_offset_default
 *(.vector_15)
                0x000000009d0008b8                . = ALIGN (0x4)
                0x0000000000001824                __vector_offset_16 = DEFINED (__vector_dispatch_16)?(. - _ebase_address):__vector_offset_default
 *(.vector_16)
                0x000000009d0008b8                . = ALIGN (0x4)
                0x0000000000001824                __vector_offset_17 = DEFINED (__vector_dispatch_17)?(. - _ebase_address):__vector_offset_default
 *(.vector_17)
                0x000000009d0008b8                . = ALIGN (0x4)
                0x0000000000001824                __vector_offset_18 = DEFINED (__vector_dispatch_18)?(. - _ebase_address):__vector_offset_default
 *(.vector_18)
                0x000000009d0008b8                . = ALIGN (0x4)
                0x0000000000001824                __vector_offset_19 = DEFINED (__vector_dispatch_19)?(. - _ebase_address):__vector_offset_default
 *(.vector_19)
                0x000000009d0008b8                . = ALIGN (0x4)
                0x0000000000001824                __vector_offset_20 = DEFINED (__vector_dispatch_20)?(. - _ebase_address):__vector_offset_default
 *(.vector_20)
                0x000000009d0008b8                . = ALIGN (0x4)
                0x0000000000001824                __vector_offset_21 = DEFINED (__vector_dispatch_21)?(. - _ebase_address):__vector_offset_default
 *(.vector_21)
                0x000000009d0008b8                . = ALIGN (0x4)
                0x0000000000001824                __vector_offset_22 = DEFINED (__vector_dispatch_22)?(. - _ebase_address):__vector_offset_default
 *(.vector_22)
                0x000000009d0008b8                . = ALIGN (0x4)
                0x0000000000001824                __vector_offset_23 = DEFINED (__vector_dispatch_23)?(. - _ebase_address):__vector_offset_default
 *(.vector_23)
                0x000000009d0008b8                . = ALIGN (0x4)
                0x0000000000001824                __vector_offset_24 = DEFINED (__vector_dispatch_24)?(. - _ebase_address):__vector_offset_default
 *(.vector_24)
                0x000000009d0008b8                . = ALIGN (0x4)
                0x0000000000001824                __vector_offset_25 = DEFINED (__vector_dispatch_25)?(. - _ebase_address):__vector_offset_default
 *(.vector_25)
                0x000000009d0008b8                . = ALIGN (0x4)
                0x0000000000001824                __vector_offset_26 = DEFINED (__vector_dispatch_26)?(. - _ebase_address):__vector_offset_default
 *(.vector_26)
                0x000000009d0008b8                . = ALIGN (0x4)
                0x0000000000001824                __vector_offset_27 = DEFINED (__vector_dispatch_27)?(. - _ebase_address):__vector_offset_default
 *(.vector_27)
                0x000000009d0008b8                . = ALIGN (0x4)
                0x0000000000001824                __vector_offset_28 = DEFINED (__vector_dispatch_28)?(. - _ebase_address):__vector_offset_default
 *(.vector_28)
                0x000000009d0008b8                . = ALIGN (0x4)
                0x0000000000001824                __vector_offset_29 = DEFINED (__vector_dispatch_29)?(. - _ebase_address):__vector_offset_default
 *(.vector_29)
                0x000000009d0008b8                . = ALIGN (0x4)
                0x0000000000001824                __vector_offset_30 = DEFINED (__vector_dispatch_30)?(. - _ebase_address):__vector_offset_default
 *(.vector_30)
                0x000000009d0008b8                . = ALIGN (0x4)
                0x0000000000001824                __vector_offset_31 = DEFINED (__vector_dispatch_31)?(. - _ebase_address):__vector_offset_default
 *(.vector_31)
                0x000000009d0008b8                . = ALIGN (0x4)
                0x0000000000001824                __vector_offset_32 = DEFINED (__vector_dispatch_32)?(. - _ebase_address):__vector_offset_default
 *(.vector_32)
                0x000000009d0008b8                . = ALIGN (0x4)
                0x0000000000001824                __vector_offset_33 = DEFINED (__vector_dispatch_33)?(. - _ebase_address):__vector_offset_default
 *(.vector_33)
                0x000000009d0008b8                . = ALIGN (0x4)
                0x0000000000001824                __vector_offset_34 = DEFINED (__vector_dispatch_34)?(. - _ebase_address):__vector_offset_default
 *(.vector_34)
                0x000000009d0008b8                . = ALIGN (0x4)
                0x0000000000001824                __vector_offset_35 = DEFINED (__vector_dispatch_35)?(. - _ebase_address):__vector_offset_default
 *(.vector_35)
                0x000000009d0008b8                . = ALIGN (0x4)
                0x0000000000001824                __vector_offset_36 = DEFINED (__vector_dispatch_36)?(. - _ebase_address):__vector_offset_default
 *(.vector_36)
                0x000000009d0008b8                . = ALIGN (0x4)
                0x0000000000001824                __vector_offset_37 = DEFINED (__vector_dispatch_37)?(. - _ebase_address):__vector_offset_default
 *(.vector_37)
                0x000000009d0008b8                . = ALIGN (0x4)
                0x00000000000008b8                __vector_offset_38 = DEFINED (__vector_dispatch_38)?(. - _ebase_address):__vector_offset_default
 *(.vector_38)
 .vector_38     0x000000009d0008b8      0x234 build/default/debug/_ext/1171490990/interrupts_a.o
                0x000000009d0008b8                __vector_dispatch_38
                0x000000009d000aec                . = ALIGN (0x4)
                0x0000000000000aec                __vector_offset_39 = DEFINED (__vector_dispatch_39)?(. - _ebase_address):__vector_offset_default
 *(.vector_39)
 .vector_39     0x000000009d000aec      0x234 build/default/debug/_ext/1171490990/interrupts_a.o
                0x000000009d000aec                __vector_dispatch_39
                0x000000009d000d20                . = ALIGN (0x4)
                0x0000000000000d20                __vector_offset_40 = DEFINED (__vector_dispatch_40)?(. - _ebase_address):__vector_offset_default
 *(.vector_40)
 .vector_40     0x000000009d000d20      0x234 build/default/debug/_ext/1171490990/interrupts_a.o
                0x000000009d000d20                __vector_dispatch_40
                0x000000009d000f54                . = ALIGN (0x4)
                0x0000000000001824                __vector_offset_41 = DEFINED (__vector_dispatch_41)?(. - _ebase_address):__vector_offset_default
 *(.vector_41)
                0x000000009d000f54                . = ALIGN (0x4)
                0x0000000000001824                __vector_offset_42 = DEFINED (__vector_dispatch_42)?(. - _ebase_address):__vector_offset_default
 *(.vector_42)
                0x000000009d000f54                . = ALIGN (0x4)
                0x0000000000001824                __vector_offset_43 = DEFINED (__vector_dispatch_43)?(. - _ebase_address):__vector_offset_default
 *(.vector_43)
                0x000000009d000f54                . = ALIGN (0x4)
                0x0000000000001824                __vector_offset_44 = DEFINED (__vector_dispatch_44)?(. - _ebase_address):__vector_offset_default
 *(.vector_44)
                0x000000009d000f54                . = ALIGN (0x4)
                0x0000000000001824                __vector_offset_45 = DEFINED (__vector_dispatch_45)?(. - _ebase_address):__vector_offset_default
 *(.vector_45)
                0x000000009d000f54                . = ALIGN (0x4)
                0x0000000000001824                __vector_offset_46 = DEFINED (__vector_dispatch_46)?(. - _ebase_address):__vector_offset_default
 *(.vector_46)
                0x000000009d000f54                . = ALIGN (0x4)
                0x0000000000001824                __vector_offset_47 = DEFINED (__vector_dispatch_47)?(. - _ebase_address):__vector_offset_default
 *(.vector_47)
                0x000000009d000f54                . = ALIGN (0x4)
                0x0000000000001824                __vector_offset_48 = DEFINED (__vector_dispatch_48)?(. - _ebase_address):__vector_offset_default
 *(.vector_48)
                0x000000009d000f54                . = ALIGN (0x4)
                0x0000000000001824                __vector_offset_49 = DEFINED (__vector_dispatch_49)?(. - _ebase_address):__vector_offset_default
 *(.vector_49)
                0x000000009d000f54                . = ALIGN (0x4)
                0x0000000000001824                __vector_offset_50 = DEFINED (__vector_dispatch_50)?(. - _ebase_address):__vector_offset_default
 *(.vector_50)
                0x000000009d000f54                . = ALIGN (0x4)
                0x0000000000001824                __vector_offset_51 = DEFINED (__vector_dispatch_51)?(. - _ebase_address):__vector_offset_default
 *(.vector_51)
                0x000000009d000f54                . = ALIGN (0x4)
                0x0000000000001824                __vector_offset_52 = DEFINED (__vector_dispatch_52)?(. - _ebase_address):__vector_offset_default
 *(.vector_52)
                0x000000009d000f54                . = ALIGN (0x4)
                0x0000000000001824                __vector_offset_53 = DEFINED (__vector_dispatch_53)?(. - _ebase_address):__vector_offset_default
 *(.vector_53)
                0x000000009d000f54                . = ALIGN (0x4)
                0x0000000000001824                __vector_offset_54 = DEFINED (__vector_dispatch_54)?(. - _ebase_address):__vector_offset_default
 *(.vector_54)
                0x000000009d000f54                . = ALIGN (0x4)
                0x0000000000001824                __vector_offset_55 = DEFINED (__vector_dispatch_55)?(. - _ebase_address):__vector_offset_default
 *(.vector_55)
                0x000000009d000f54                . = ALIGN (0x4)
                0x0000000000001824                __vector_offset_56 = DEFINED (__vector_dispatch_56)?(. - _ebase_address):__vector_offset_default
 *(.vector_56)
                0x000000009d000f54                . = ALIGN (0x4)
                0x0000000000001824                __vector_offset_57 = DEFINED (__vector_dispatch_57)?(. - _ebase_address):__vector_offset_default
 *(.vector_57)
                0x000000009d000f54                . = ALIGN (0x4)
                0x0000000000001824                __vector_offset_58 = DEFINED (__vector_dispatch_58)?(. - _ebase_address):__vector_offset_default
 *(.vector_58)
                0x000000009d000f54                . = ALIGN (0x4)
                0x0000000000001824                __vector_offset_59 = DEFINED (__vector_dispatch_59)?(. - _ebase_address):__vector_offset_default
 *(.vector_59)
                0x000000009d000f54                . = ALIGN (0x4)
                0x0000000000001824                __vector_offset_60 = DEFINED (__vector_dispatch_60)?(. - _ebase_address):__vector_offset_default
 *(.vector_60)
                0x000000009d000f54                . = ALIGN (0x4)
                0x0000000000001824                __vector_offset_61 = DEFINED (__vector_dispatch_61)?(. - _ebase_address):__vector_offset_default
 *(.vector_61)
                0x000000009d000f54                . = ALIGN (0x4)
                0x0000000000000f54                __vector_offset_62 = DEFINED (__vector_dispatch_62)?(. - _ebase_address):__vector_offset_default
 *(.vector_62)
 .vector_62     0x000000009d000f54      0x234 build/default/debug/_ext/1171490990/interrupts_a.o
                0x000000009d000f54                __vector_dispatch_62
                0x000000009d001188                . = ALIGN (0x4)
                0x0000000000001188                __vector_offset_63 = DEFINED (__vector_dispatch_63)?(. - _ebase_address):__vector_offset_default
 *(.vector_63)
 .vector_63     0x000000009d001188      0x234 build/default/debug/_ext/1171490990/interrupts_a.o
                0x000000009d001188                __vector_dispatch_63
                0x000000009d0013bc                . = ALIGN (0x4)
                0x00000000000013bc                __vector_offset_64 = DEFINED (__vector_dispatch_64)?(. - _ebase_address):__vector_offset_default
 *(.vector_64)
 .vector_64     0x000000009d0013bc      0x234 build/default/debug/_ext/1171490990/interrupts_a.o
                0x000000009d0013bc                __vector_dispatch_64
                0x000000009d0015f0                . = ALIGN (0x4)
                0x0000000000001824                __vector_offset_65 = DEFINED (__vector_dispatch_65)?(. - _ebase_address):__vector_offset_default
 *(.vector_65)
                0x000000009d0015f0                . = ALIGN (0x4)
                0x0000000000001824                __vector_offset_66 = DEFINED (__vector_dispatch_66)?(. - _ebase_address):__vector_offset_default
 *(.vector_66)
                0x000000009d0015f0                . = ALIGN (0x4)
                0x0000000000001824                __vector_offset_67 = DEFINED (__vector_dispatch_67)?(. - _ebase_address):__vector_offset_default
 *(.vector_67)
                0x000000009d0015f0                . = ALIGN (0x4)
                0x0000000000001824                __vector_offset_68 = DEFINED (__vector_dispatch_68)?(. - _ebase_address):__vector_offset_default
 *(.vector_68)
                0x000000009d0015f0                . = ALIGN (0x4)
                0x0000000000001824                __vector_offset_69 = DEFINED (__vector_dispatch_69)?(. - _ebase_address):__vector_offset_default
 *(.vector_69)
                0x000000009d0015f0                . = ALIGN (0x4)
                0x0000000000001824                __vector_offset_70 = DEFINED (__vector_dispatch_70)?(. - _ebase_address):__vector_offset_default
 *(.vector_70)
                0x000000009d0015f0                . = ALIGN (0x4)
                0x0000000000001824                __vector_offset_71 = DEFINED (__vector_dispatch_71)?(. - _ebase_address):__vector_offset_default
 *(.vector_71)
                0x000000009d0015f0                . = ALIGN (0x4)
                0x0000000000001824                __vector_offset_72 = DEFINED (__vector_dispatch_72)?(. - _ebase_address):__vector_offset_default
 *(.vector_72)
                0x000000009d0015f0                . = ALIGN (0x4)
                0x00000000000015f0                __vector_offset_73 = DEFINED (__vector_dispatch_73)?(. - _ebase_address):__vector_offset_default
 *(.vector_73)
 .vector_73     0x000000009d0015f0      0x234 build/default/debug/_ext/1171490990/interrupts_a.o
                0x000000009d0015f0                __vector_dispatch_73
                0x000000009d001824                . = ALIGN (0x4)
                0x0000000000001824                __vector_offset_74 = DEFINED (__vector_dispatch_74)?(. - _ebase_address):__vector_offset_default
 *(.vector_74)
                0x000000009d001824                . = ALIGN (0x4)
                0x0000000000001824                __vector_offset_75 = DEFINED (__vector_dispatch_75)?(. - _ebase_address):__vector_offset_default
 *(.vector_75)
                0x000000009d001824                . = ALIGN (0x4)
                0x0000000000001824                __vector_offset_76 = DEFINED (__vector_dispatch_76)?(. - _ebase_address):__vector_offset_default
 *(.vector_76)
                0x000000009d001824                . = ALIGN (0x4)
                0x0000000000001824                __vector_offset_77 = DEFINED (__vector_dispatch_77)?(. - _ebase_address):__vector_offset_default
 *(.vector_77)
                0x000000009d001824                . = ALIGN (0x4)
                0x0000000000001824                __vector_offset_78 = DEFINED (__vector_dispatch_78)?(. - _ebase_address):__vector_offset_default
 *(.vector_78)
                0x000000009d001824                . = ALIGN (0x4)
                0x0000000000001824                __vector_offset_79 = DEFINED (__vector_dispatch_79)?(. - _ebase_address):__vector_offset_default
 *(.vector_79)
                0x000000009d001824                . = ALIGN (0x4)
                0x0000000000001824                __vector_offset_80 = DEFINED (__vector_dispatch_80)?(. - _ebase_address):__vector_offset_default
 *(.vector_80)
                0x000000009d001824                . = ALIGN (0x4)
                0x0000000000001824                __vector_offset_81 = DEFINED (__vector_dispatch_81)?(. - _ebase_address):__vector_offset_default
 *(.vector_81)
                0x000000009d001824                . = ALIGN (0x4)
                0x0000000000001824                __vector_offset_82 = DEFINED (__vector_dispatch_82)?(. - _ebase_address):__vector_offset_default
 *(.vector_82)
                0x000000009d001824                . = ALIGN (0x4)
                0x0000000000001824                __vector_offset_83 = DEFINED (__vector_dispatch_83)?(. - _ebase_address):__vector_offset_default
 *(.vector_83)
                0x000000009d001824                . = ALIGN (0x4)
                0x0000000000001824                __vector_offset_84 = DEFINED (__vector_dispatch_84)?(. - _ebase_address):__vector_offset_default
 *(.vector_84)
                0x000000009d001824                . = ALIGN (0x4)
                0x0000000000001824                __vector_offset_85 = DEFINED (__vector_dispatch_85)?(. - _ebase_address):__vector_offset_default
 *(.vector_85)
                0x000000009d001824                . = ALIGN (0x4)
                0x0000000000001824                __vector_offset_86 = DEFINED (__vector_dispatch_86)?(. - _ebase_address):__vector_offset_default
 *(.vector_86)
                0x000000009d001824                . = ALIGN (0x4)
                0x0000000000001824                __vector_offset_87 = DEFINED (__vector_dispatch_87)?(. - _ebase_address):__vector_offset_default
 *(.vector_87)
                0x000000009d001824                . = ALIGN (0x4)
                0x0000000000001824                __vector_offset_88 = DEFINED (__vector_dispatch_88)?(. - _ebase_address):__vector_offset_default
 *(.vector_88)
                0x000000009d001824                . = ALIGN (0x4)
                0x0000000000001824                __vector_offset_89 = DEFINED (__vector_dispatch_89)?(. - _ebase_address):__vector_offset_default
 *(.vector_89)
                0x000000009d001824                . = ALIGN (0x4)
                0x0000000000001824                __vector_offset_90 = DEFINED (__vector_dispatch_90)?(. - _ebase_address):__vector_offset_default
 *(.vector_90)
                0x000000009d001824                . = ALIGN (0x4)
                0x0000000000001824                __vector_offset_91 = DEFINED (__vector_dispatch_91)?(. - _ebase_address):__vector_offset_default
 *(.vector_91)
                0x000000009d001824                . = ALIGN (0x4)
                0x0000000000001824                __vector_offset_92 = DEFINED (__vector_dispatch_92)?(. - _ebase_address):__vector_offset_default
 *(.vector_92)
                0x000000009d001824                . = ALIGN (0x4)
                0x0000000000001824                __vector_offset_93 = DEFINED (__vector_dispatch_93)?(. - _ebase_address):__vector_offset_default
 *(.vector_93)
                0x000000009d001824                . = ALIGN (0x4)
                0x0000000000001824                __vector_offset_94 = DEFINED (__vector_dispatch_94)?(. - _ebase_address):__vector_offset_default
 *(.vector_94)
                0x000000009d001824                . = ALIGN (0x4)
                0x0000000000001824                __vector_offset_95 = DEFINED (__vector_dispatch_95)?(. - _ebase_address):__vector_offset_default
 *(.vector_95)
                0x000000009d001824                . = ALIGN (0x4)
                0x0000000000001824                __vector_offset_96 = DEFINED (__vector_dispatch_96)?(. - _ebase_address):__vector_offset_default
 *(.vector_96)
                0x000000009d001824                . = ALIGN (0x4)
                0x0000000000001824                __vector_offset_97 = DEFINED (__vector_dispatch_97)?(. - _ebase_address):__vector_offset_default
 *(.vector_97)
                0x000000009d001824                . = ALIGN (0x4)
                0x0000000000001824                __vector_offset_98 = DEFINED (__vector_dispatch_98)?(. - _ebase_address):__vector_offset_default
 *(.vector_98)
                0x000000009d001824                . = ALIGN (0x4)
                0x0000000000001824                __vector_offset_99 = DEFINED (__vector_dispatch_99)?(. - _ebase_address):__vector_offset_default
 *(.vector_99)
                0x000000009d001824                . = ALIGN (0x4)
                0x0000000000001824                __vector_offset_100 = DEFINED (__vector_dispatch_100)?(. - _ebase_address):__vector_offset_default
 *(.vector_100)
                0x000000009d001824                . = ALIGN (0x4)
                0x0000000000001824                __vector_offset_101 = DEFINED (__vector_dispatch_101)?(. - _ebase_address):__vector_offset_default
 *(.vector_101)
                0x000000009d001824                . = ALIGN (0x4)
                0x0000000000001824                __vector_offset_102 = DEFINED (__vector_dispatch_102)?(. - _ebase_address):__vector_offset_default
 *(.vector_102)
                0x000000009d001824                . = ALIGN (0x4)
                0x0000000000001824                __vector_offset_103 = DEFINED (__vector_dispatch_103)?(. - _ebase_address):__vector_offset_default
 *(.vector_103)
                0x000000009d001824                . = ALIGN (0x4)
                0x0000000000001824                __vector_offset_104 = DEFINED (__vector_dispatch_104)?(. - _ebase_address):__vector_offset_default
 *(.vector_104)
                0x000000009d001824                . = ALIGN (0x4)
                0x0000000000001824                __vector_offset_105 = DEFINED (__vector_dispatch_105)?(. - _ebase_address):__vector_offset_default
 *(.vector_105)
                0x000000009d001824                . = ALIGN (0x4)
                0x0000000000001824                __vector_offset_106 = DEFINED (__vector_dispatch_106)?(. - _ebase_address):__vector_offset_default
 *(.vector_106)
                0x000000009d001824                . = ALIGN (0x4)
                0x0000000000001824                __vector_offset_107 = DEFINED (__vector_dispatch_107)?(. - _ebase_address):__vector_offset_default
 *(.vector_107)
                0x000000009d001824                . = ALIGN (0x4)
                0x0000000000001824                __vector_offset_108 = DEFINED (__vector_dispatch_108)?(. - _ebase_address):__vector_offset_default
 *(.vector_108)
                0x000000009d001824                . = ALIGN (0x4)
                0x0000000000001824                __vector_offset_109 = DEFINED (__vector_dispatch_109)?(. - _ebase_address):__vector_offset_default
 *(.vector_109)
                0x000000009d001824                . = ALIGN (0x4)
                0x0000000000001824                __vector_offset_110 = DEFINED (__vector_dispatch_110)?(. - _ebase_address):__vector_offset_default
 *(.vector_110)
                0x000000009d001824                . = ALIGN (0x4)
                0x0000000000001824                __vector_offset_111 = DEFINED (__vector_dispatch_111)?(. - _ebase_address):__vector_offset_default
 *(.vector_111)
                0x000000009d001824                . = ALIGN (0x4)
                0x0000000000001824                __vector_offset_112 = DEFINED (__vector_dispatch_112)?(. - _ebase_address):__vector_offset_default
 *(.vector_112)
                0x000000009d001824                . = ALIGN (0x4)
                0x0000000000001824                __vector_offset_113 = DEFINED (__vector_dispatch_113)?(. - _ebase_address):__vector_offset_default
 *(.vector_113)
                0x000000009d001824                . = ALIGN (0x4)
                0x0000000000001824                __vector_offset_114 = DEFINED (__vector_dispatch_114)?(. - _ebase_address):__vector_offset_default
 *(.vector_114)
                0x000000009d001824                . = ALIGN (0x4)
                0x0000000000001824                __vector_offset_115 = DEFINED (__vector_dispatch_115)?(. - _ebase_address):__vector_offset_default
 *(.vector_115)
                0x000000009d001824                . = ALIGN (0x4)
                0x0000000000001824                __vector_offset_116 = DEFINED (__vector_dispatch_116)?(. - _ebase_address):__vector_offset_default
 *(.vector_116)
                0x000000009d001824                . = ALIGN (0x4)
                0x0000000000001824                __vector_offset_117 = DEFINED (__vector_dispatch_117)?(. - _ebase_address):__vector_offset_default
 *(.vector_117)
                0x000000009d001824                . = ALIGN (0x4)
                0x0000000000001824                __vector_offset_118 = DEFINED (__vector_dispatch_118)?(. - _ebase_address):__vector_offset_default
 *(.vector_118)
                0x000000009d001824                . = ALIGN (0x4)
                0x0000000000001824                __vector_offset_119 = DEFINED (__vector_dispatch_119)?(. - _ebase_address):__vector_offset_default
 *(.vector_119)
                0x000000009d001824                . = ALIGN (0x4)
                0x0000000000001824                __vector_offset_120 = DEFINED (__vector_dispatch_120)?(. - _ebase_address):__vector_offset_default
 *(.vector_120)
                0x000000009d001824                . = ALIGN (0x4)
                0x0000000000001824                __vector_offset_121 = DEFINED (__vector_dispatch_121)?(. - _ebase_address):__vector_offset_default
 *(.vector_121)
                0x000000009d001824                . = ALIGN (0x4)
                0x0000000000001824                __vector_offset_122 = DEFINED (__vector_dispatch_122)?(. - _ebase_address):__vector_offset_default
 *(.vector_122)
                0x000000009d001824                . = ALIGN (0x4)
                0x0000000000001824                __vector_offset_123 = DEFINED (__vector_dispatch_123)?(. - _ebase_address):__vector_offset_default
 *(.vector_123)
                0x000000009d001824                . = ALIGN (0x4)
                0x0000000000001824                __vector_offset_124 = DEFINED (__vector_dispatch_124)?(. - _ebase_address):__vector_offset_default
 *(.vector_124)
                0x000000009d001824                . = ALIGN (0x4)
                0x0000000000001824                __vector_offset_125 = DEFINED (__vector_dispatch_125)?(. - _ebase_address):__vector_offset_default
 *(.vector_125)
                0x000000009d001824                . = ALIGN (0x4)
                0x0000000000001824                __vector_offset_126 = DEFINED (__vector_dispatch_126)?(. - _ebase_address):__vector_offset_default
 *(.vector_126)
                0x000000009d001824                . = ALIGN (0x4)
                0x0000000000001824                __vector_offset_127 = DEFINED (__vector_dispatch_127)?(. - _ebase_address):__vector_offset_default
 *(.vector_127)
                0x000000009d001824                . = ALIGN (0x4)
                0x0000000000001824                __vector_offset_128 = DEFINED (__vector_dispatch_128)?(. - _ebase_address):__vector_offset_default
 *(.vector_128)
                0x000000009d001824                . = ALIGN (0x4)
                0x0000000000001824                __vector_offset_129 = DEFINED (__vector_dispatch_129)?(. - _ebase_address):__vector_offset_default
 *(.vector_129)
                0x000000009d001824                . = ALIGN (0x4)
                0x0000000000001824                __vector_offset_130 = DEFINED (__vector_dispatch_130)?(. - _ebase_address):__vector_offset_default
 *(.vector_130)
                0x000000009d001824                . = ALIGN (0x4)
                0x0000000000001824                __vector_offset_131 = DEFINED (__vector_dispatch_131)?(. - _ebase_address):__vector_offset_default
 *(.vector_131)
                0x000000009d001824                . = ALIGN (0x4)
                0x0000000000001824                __vector_offset_132 = DEFINED (__vector_dispatch_132)?(. - _ebase_address):__vector_offset_default
 *(.vector_132)
                0x000000009d001824                . = ALIGN (0x4)
                0x0000000000001824                __vector_offset_133 = DEFINED (__vector_dispatch_133)?(. - _ebase_address):__vector_offset_default
 *(.vector_133)
                0x000000009d001824                . = ALIGN (0x4)
                0x0000000000001824                __vector_offset_134 = DEFINED (__vector_dispatch_134)?(. - _ebase_address):__vector_offset_default
 *(.vector_134)
                0x000000009d001824                . = ALIGN (0x4)
                0x0000000000001824                __vector_offset_135 = DEFINED (__vector_dispatch_135)?(. - _ebase_address):__vector_offset_default
 *(.vector_135)
                0x000000009d001824                . = ALIGN (0x4)
                0x0000000000001824                __vector_offset_136 = DEFINED (__vector_dispatch_136)?(. - _ebase_address):__vector_offset_default
 *(.vector_136)
                0x000000009d001824                . = ALIGN (0x4)
                0x0000000000001824                __vector_offset_137 = DEFINED (__vector_dispatch_137)?(. - _ebase_address):__vector_offset_default
 *(.vector_137)
                0x000000009d001824                . = ALIGN (0x4)
                0x0000000000001824                __vector_offset_138 = DEFINED (__vector_dispatch_138)?(. - _ebase_address):__vector_offset_default
 *(.vector_138)
                0x000000009d001824                . = ALIGN (0x4)
                0x0000000000001824                __vector_offset_139 = DEFINED (__vector_dispatch_139)?(. - _ebase_address):__vector_offset_default
 *(.vector_139)
                0x000000009d001824                . = ALIGN (0x4)
                0x0000000000001824                __vector_offset_140 = DEFINED (__vector_dispatch_140)?(. - _ebase_address):__vector_offset_default
 *(.vector_140)
                0x000000009d001824                . = ALIGN (0x4)
                0x0000000000001824                __vector_offset_141 = DEFINED (__vector_dispatch_141)?(. - _ebase_address):__vector_offset_default
 *(.vector_141)
                0x000000009d001824                . = ALIGN (0x4)
                0x0000000000001824                __vector_offset_142 = DEFINED (__vector_dispatch_142)?(. - _ebase_address):__vector_offset_default
 *(.vector_142)
                0x000000009d001824                . = ALIGN (0x4)
                0x0000000000001824                __vector_offset_143 = DEFINED (__vector_dispatch_143)?(. - _ebase_address):__vector_offset_default
 *(.vector_143)
                0x000000009d001824                . = ALIGN (0x4)
                0x0000000000001824                __vector_offset_144 = DEFINED (__vector_dispatch_144)?(. - _ebase_address):__vector_offset_default
 *(.vector_144)
                0x000000009d001824                . = ALIGN (0x4)
                0x0000000000001824                __vector_offset_145 = DEFINED (__vector_dispatch_145)?(. - _ebase_address):__vector_offset_default
 *(.vector_145)
                0x000000009d001824                . = ALIGN (0x4)
                0x0000000000001824                __vector_offset_146 = DEFINED (__vector_dispatch_146)?(. - _ebase_address):__vector_offset_default
 *(.vector_146)
                0x000000009d001824                . = ALIGN (0x4)
                0x0000000000001824                __vector_offset_147 = DEFINED (__vector_dispatch_147)?(. - _ebase_address):__vector_offset_default
 *(.vector_147)
                0x000000009d001824                . = ALIGN (0x4)
                0x0000000000001824                __vector_offset_148 = DEFINED (__vector_dispatch_148)?(. - _ebase_address):__vector_offset_default
 *(.vector_148)
                0x000000009d001824                . = ALIGN (0x4)
                0x0000000000001824                __vector_offset_149 = DEFINED (__vector_dispatch_149)?(. - _ebase_address):__vector_offset_default
 *(.vector_149)
                0x000000009d001824                . = ALIGN (0x4)
                0x0000000000001824                __vector_offset_150 = DEFINED (__vector_dispatch_150)?(. - _ebase_address):__vector_offset_default
 *(.vector_150)
                0x000000009d001824                . = ALIGN (0x4)
                0x0000000000001824                __vector_offset_151 = DEFINED (__vector_dispatch_151)?(. - _ebase_address):__vector_offset_default
 *(.vector_151)
                0x000000009d001824                . = ALIGN (0x4)
                0x0000000000001824                __vector_offset_152 = DEFINED (__vector_dispatch_152)?(. - _ebase_address):__vector_offset_default
 *(.vector_152)
                0x000000009d001824                . = ALIGN (0x4)
                0x0000000000001824                __vector_offset_153 = DEFINED (__vector_dispatch_153)?(. - _ebase_address):__vector_offset_default
 *(.vector_153)
                0x000000009d001824                . = ALIGN (0x4)
                0x0000000000001824                __vector_offset_154 = DEFINED (__vector_dispatch_154)?(. - _ebase_address):__vector_offset_default
 *(.vector_154)
                0x000000009d001824                . = ALIGN (0x4)
                0x0000000000001824                __vector_offset_155 = DEFINED (__vector_dispatch_155)?(. - _ebase_address):__vector_offset_default
 *(.vector_155)
                0x000000009d001824                . = ALIGN (0x4)
                0x0000000000001824                __vector_offset_156 = DEFINED (__vector_dispatch_156)?(. - _ebase_address):__vector_offset_default
 *(.vector_156)
                0x000000009d001824                . = ALIGN (0x4)
                0x0000000000001824                __vector_offset_157 = DEFINED (__vector_dispatch_157)?(. - _ebase_address):__vector_offset_default
 *(.vector_157)
                0x000000009d001824                . = ALIGN (0x4)
                0x0000000000001824                __vector_offset_158 = DEFINED (__vector_dispatch_158)?(. - _ebase_address):__vector_offset_default
 *(.vector_158)
                0x000000009d001824                . = ALIGN (0x4)
                0x0000000000001824                __vector_offset_159 = DEFINED (__vector_dispatch_159)?(. - _ebase_address):__vector_offset_default
 *(.vector_159)
                0x000000009d001824                . = ALIGN (0x4)
                0x0000000000001824                __vector_offset_160 = DEFINED (__vector_dispatch_160)?(. - _ebase_address):__vector_offset_default
 *(.vector_160)
                0x000000009d001824                . = ALIGN (0x4)
                0x0000000000001824                __vector_offset_161 = DEFINED (__vector_dispatch_161)?(. - _ebase_address):__vector_offset_default
 *(.vector_161)
                0x000000009d001824                . = ALIGN (0x4)
                0x0000000000001824                __vector_offset_162 = DEFINED (__vector_dispatch_162)?(. - _ebase_address):__vector_offset_default
 *(.vector_162)
                0x000000009d001824                . = ALIGN (0x4)
                0x0000000000001824                __vector_offset_163 = DEFINED (__vector_dispatch_163)?(. - _ebase_address):__vector_offset_default
 *(.vector_163)
                0x000000009d001824                . = ALIGN (0x4)
                0x0000000000001824                __vector_offset_164 = DEFINED (__vector_dispatch_164)?(. - _ebase_address):__vector_offset_default
 *(.vector_164)
                0x000000009d001824                . = ALIGN (0x4)
                0x0000000000001824                __vector_offset_165 = DEFINED (__vector_dispatch_165)?(. - _ebase_address):__vector_offset_default
 *(.vector_165)
                0x000000009d001824                . = ALIGN (0x4)
                0x0000000000001824                __vector_offset_166 = DEFINED (__vector_dispatch_166)?(. - _ebase_address):__vector_offset_default
 *(.vector_166)
                0x000000009d001824                . = ALIGN (0x4)
                0x0000000000001824                __vector_offset_167 = DEFINED (__vector_dispatch_167)?(. - _ebase_address):__vector_offset_default
 *(.vector_167)
                0x000000009d001824                . = ALIGN (0x4)
                0x0000000000001824                __vector_offset_168 = DEFINED (__vector_dispatch_168)?(. - _ebase_address):__vector_offset_default
 *(.vector_168)
                0x000000009d001824                . = ALIGN (0x4)
                0x0000000000001824                __vector_offset_169 = DEFINED (__vector_dispatch_169)?(. - _ebase_address):__vector_offset_default
 *(.vector_169)
                0x000000009d001824                . = ALIGN (0x4)
                0x0000000000001824                __vector_offset_170 = DEFINED (__vector_dispatch_170)?(. - _ebase_address):__vector_offset_default
 *(.vector_170)
                0x000000009d001824                . = ALIGN (0x4)
                0x0000000000001824                __vector_offset_171 = DEFINED (__vector_dispatch_171)?(. - _ebase_address):__vector_offset_default
 *(.vector_171)
                0x000000009d001824                . = ALIGN (0x4)
                0x0000000000001824                __vector_offset_172 = DEFINED (__vector_dispatch_172)?(. - _ebase_address):__vector_offset_default
 *(.vector_172)
                0x000000009d001824                . = ALIGN (0x4)
                0x0000000000001824                __vector_offset_173 = DEFINED (__vector_dispatch_173)?(. - _ebase_address):__vector_offset_default
 *(.vector_173)
                0x000000009d001824                . = ALIGN (0x4)
                0x0000000000001824                __vector_offset_174 = DEFINED (__vector_dispatch_174)?(. - _ebase_address):__vector_offset_default
 *(.vector_174)
                0x000000009d001824                . = ALIGN (0x4)
                0x0000000000001824                __vector_offset_175 = DEFINED (__vector_dispatch_175)?(. - _ebase_address):__vector_offset_default
 *(.vector_175)
                0x000000009d001824                . = ALIGN (0x4)
                0x0000000000001824                __vector_offset_176 = DEFINED (__vector_dispatch_176)?(. - _ebase_address):__vector_offset_default
 *(.vector_176)
                0x000000009d001824                . = ALIGN (0x4)
                0x0000000000001824                __vector_offset_177 = DEFINED (__vector_dispatch_177)?(. - _ebase_address):__vector_offset_default
 *(.vector_177)
                0x000000009d001824                . = ALIGN (0x4)
                0x0000000000001824                __vector_offset_178 = DEFINED (__vector_dispatch_178)?(. - _ebase_address):__vector_offset_default
 *(.vector_178)
                0x000000009d001824                . = ALIGN (0x4)
                0x0000000000001824                __vector_offset_179 = DEFINED (__vector_dispatch_179)?(. - _ebase_address):__vector_offset_default
 *(.vector_179)
                0x000000009d001824                . = ALIGN (0x4)
                0x0000000000001824                __vector_offset_180 = DEFINED (__vector_dispatch_180)?(. - _ebase_address):__vector_offset_default
 *(.vector_180)
                0x000000009d001824                . = ALIGN (0x4)
                0x0000000000001824                __vector_offset_181 = DEFINED (__vector_dispatch_181)?(. - _ebase_address):__vector_offset_default
 *(.vector_181)
                0x000000009d001824                . = ALIGN (0x4)
                0x0000000000001824                __vector_offset_182 = DEFINED (__vector_dispatch_182)?(. - _ebase_address):__vector_offset_default
 *(.vector_182)
                0x000000009d001824                . = ALIGN (0x4)
                0x0000000000001824                __vector_offset_183 = DEFINED (__vector_dispatch_183)?(. - _ebase_address):__vector_offset_default
 *(.vector_183)
                0x000000009d001824                . = ALIGN (0x4)
                0x0000000000001824                __vector_offset_184 = DEFINED (__vector_dispatch_184)?(. - _ebase_address):__vector_offset_default
 *(.vector_184)
                0x000000009d001824                . = ALIGN (0x4)
                0x0000000000001824                __vector_offset_185 = DEFINED (__vector_dispatch_185)?(. - _ebase_address):__vector_offset_default
 *(.vector_185)
                0x000000009d001824                . = ALIGN (0x4)
                0x0000000000001824                __vector_offset_186 = DEFINED (__vector_dispatch_186)?(. - _ebase_address):__vector_offset_default
 *(.vector_186)
                0x000000009d001824                . = ALIGN (0x4)
                0x0000000000001824                __vector_offset_187 = DEFINED (__vector_dispatch_187)?(. - _ebase_address):__vector_offset_default
 *(.vector_187)
                0x000000009d001824                . = ALIGN (0x4)
                0x0000000000001824                __vector_offset_188 = DEFINED (__vector_dispatch_188)?(. - _ebase_address):__vector_offset_default
 *(.vector_188)
                0x000000009d001824                . = ALIGN (0x4)
                0x0000000000001824                __vector_offset_189 = DEFINED (__vector_dispatch_189)?(. - _ebase_address):__vector_offset_default
 *(.vector_189)
                0x000000009d001824                . = ALIGN (0x4)
                0x0000000000001824                __vector_offset_190 = DEFINED (__vector_dispatch_190)?(. - _ebase_address):__vector_offset_default
 *(.vector_190)
                0x000000009d001824                . = ALIGN (0x4)
                0x0000000000001824                __vector_offset_191 = DEFINED (__vector_dispatch_191)?(. - _ebase_address):__vector_offset_default
 *(.vector_191)
                0x000000009d001824                . = ALIGN (0x4)
                0x0000000000001824                __vector_offset_192 = DEFINED (__vector_dispatch_192)?(. - _ebase_address):__vector_offset_default
 *(.vector_192)
                0x000000009d001824                . = ALIGN (0x4)
                0x0000000000001824                __vector_offset_193 = DEFINED (__vector_dispatch_193)?(. - _ebase_address):__vector_offset_default
 *(.vector_193)
                0x000000009d001824                . = ALIGN (0x4)
                0x0000000000001824                __vector_offset_194 = DEFINED (__vector_dispatch_194)?(. - _ebase_address):__vector_offset_default
 *(.vector_194)
                0x000000009d001824                . = ALIGN (0x4)
                0x0000000000001824                __vector_offset_195 = DEFINED (__vector_dispatch_195)?(. - _ebase_address):__vector_offset_default
 *(.vector_195)
                0x000000009d001824                . = ALIGN (0x4)
                0x0000000000001824                __vector_offset_196 = DEFINED (__vector_dispatch_196)?(. - _ebase_address):__vector_offset_default
 *(.vector_196)
                0x000000009d001824                . = ALIGN (0x4)
                0x0000000000001824                __vector_offset_197 = DEFINED (__vector_dispatch_197)?(. - _ebase_address):__vector_offset_default
 *(.vector_197)
                0x000000009d001824                . = ALIGN (0x4)
                0x0000000000001824                __vector_offset_198 = DEFINED (__vector_dispatch_198)?(. - _ebase_address):__vector_offset_default
 *(.vector_198)
                0x000000009d001824                . = ALIGN (0x4)
                0x0000000000001824                __vector_offset_199 = DEFINED (__vector_dispatch_199)?(. - _ebase_address):__vector_offset_default
 *(.vector_199)
                0x000000009d001824                . = ALIGN (0x4)
                0x0000000000001824                __vector_offset_200 = DEFINED (__vector_dispatch_200)?(. - _ebase_address):__vector_offset_default
 *(.vector_200)
                0x000000009d001824                . = ALIGN (0x4)
                0x0000000000001824                __vector_offset_201 = DEFINED (__vector_dispatch_201)?(. - _ebase_address):__vector_offset_default
 *(.vector_201)
                0x000000009d001824                . = ALIGN (0x4)
                0x0000000000001824                __vector_offset_202 = DEFINED (__vector_dispatch_202)?(. - _ebase_address):__vector_offset_default
 *(.vector_202)
                0x000000009d001824                . = ALIGN (0x4)
                0x0000000000001824                __vector_offset_203 = DEFINED (__vector_dispatch_203)?(. - _ebase_address):__vector_offset_default
 *(.vector_203)
                0x000000009d001824                . = ALIGN (0x4)
                0x0000000000001824                __vector_offset_204 = DEFINED (__vector_dispatch_204)?(. - _ebase_address):__vector_offset_default
 *(.vector_204)
                0x000000009d001824                . = ALIGN (0x4)
                0x0000000000001824                __vector_offset_205 = DEFINED (__vector_dispatch_205)?(. - _ebase_address):__vector_offset_default
 *(.vector_205)
                0x000000009d001824                . = ALIGN (0x4)
                0x0000000000001824                __vector_offset_206 = DEFINED (__vector_dispatch_206)?(. - _ebase_address):__vector_offset_default
 *(.vector_206)
                0x000000009d001824                . = ALIGN (0x4)
                0x0000000000001824                __vector_offset_207 = DEFINED (__vector_dispatch_207)?(. - _ebase_address):__vector_offset_default
 *(.vector_207)
                0x000000009d001824                . = ALIGN (0x4)
                0x0000000000001824                __vector_offset_208 = DEFINED (__vector_dispatch_208)?(. - _ebase_address):__vector_offset_default
 *(.vector_208)
                0x000000009d001824                . = ALIGN (0x4)
                0x0000000000001824                __vector_offset_209 = DEFINED (__vector_dispatch_209)?(. - _ebase_address):__vector_offset_default
 *(.vector_209)
                0x000000009d001824                . = ALIGN (0x4)
                0x0000000000001824                __vector_offset_210 = DEFINED (__vector_dispatch_210)?(. - _ebase_address):__vector_offset_default
 *(.vector_210)
                0x000000009d001824                . = ALIGN (0x4)
                0x0000000000001824                __vector_offset_211 = DEFINED (__vector_dispatch_211)?(. - _ebase_address):__vector_offset_default
 *(.vector_211)
                0x000000009d001824                . = ALIGN (0x4)
                0x0000000000001824                __vector_offset_212 = DEFINED (__vector_dispatch_212)?(. - _ebase_address):__vector_offset_default
 *(.vector_212)
                0x000000009d001824                . = ALIGN (0x4)
                0x0000000000001824                __vector_offset_213 = DEFINED (__vector_dispatch_213)?(. - _ebase_address):__vector_offset_default
 *(.vector_213)
                0x000000009d001824                . = ALIGN (0x4)
                0x0000000000001824                __vector_offset_214 = DEFINED (__vector_dispatch_214)?(. - _ebase_address):__vector_offset_default
 *(.vector_214)
                0x000000009d001824                . = ALIGN (0x4)
                0x0000000000001824                __vector_offset_215 = DEFINED (__vector_dispatch_215)?(. - _ebase_address):__vector_offset_default
 *(.vector_215)
                0x000000009d001824                . = ALIGN (0x4)
                0x0000000000001824                __vector_offset_216 = DEFINED (__vector_dispatch_216)?(. - _ebase_address):__vector_offset_default
 *(.vector_216)
                0x000000009d001824                . = ALIGN (0x4)
                0x0000000000001824                __vector_offset_217 = DEFINED (__vector_dispatch_217)?(. - _ebase_address):__vector_offset_default
 *(.vector_217)
                0x000000009d001824                . = ALIGN (0x4)
                0x0000000000001824                __vector_offset_218 = DEFINED (__vector_dispatch_218)?(. - _ebase_address):__vector_offset_default
 *(.vector_218)
                0x000000009d001824                . = ALIGN (0x4)
                0x0000000000001824                __vector_offset_219 = DEFINED (__vector_dispatch_219)?(. - _ebase_address):__vector_offset_default
 *(.vector_219)
                0x000000009d001824                . = ALIGN (0x4)
                0x0000000000001824                __vector_offset_220 = DEFINED (__vector_dispatch_220)?(. - _ebase_address):__vector_offset_default
 *(.vector_220)
                0x000000009d001824                . = ALIGN (0x4)
                0x0000000000001824                __vector_offset_221 = DEFINED (__vector_dispatch_221)?(. - _ebase_address):__vector_offset_default
 *(.vector_221)
                0x000000009d001824                . = ALIGN (0x4)
                0x0000000000001824                __vector_offset_222 = DEFINED (__vector_dispatch_222)?(. - _ebase_address):__vector_offset_default
 *(.vector_222)
                0x000000009d001824                . = ALIGN (0x4)
                0x0000000000001824                __vector_offset_223 = DEFINED (__vector_dispatch_223)?(. - _ebase_address):__vector_offset_default
 *(.vector_223)
                0x000000009d001824                . = ALIGN (0x4)
                0x0000000000001824                __vector_offset_224 = DEFINED (__vector_dispatch_224)?(. - _ebase_address):__vector_offset_default
 *(.vector_224)
                0x000000009d001824                . = ALIGN (0x4)
                0x0000000000001824                __vector_offset_225 = DEFINED (__vector_dispatch_225)?(. - _ebase_address):__vector_offset_default
 *(.vector_225)
                0x000000009d001824                . = ALIGN (0x4)
                0x0000000000001824                __vector_offset_226 = DEFINED (__vector_dispatch_226)?(. - _ebase_address):__vector_offset_default
 *(.vector_226)
                0x000000009d001824                . = ALIGN (0x4)
                0x0000000000001824                __vector_offset_227 = DEFINED (__vector_dispatch_227)?(. - _ebase_address):__vector_offset_default
 *(.vector_227)
                0x000000009d001824                . = ALIGN (0x4)
                0x0000000000001824                __vector_offset_228 = DEFINED (__vector_dispatch_228)?(. - _ebase_address):__vector_offset_default
 *(.vector_228)
                0x000000009d001824                . = ALIGN (0x4)
                0x0000000000001824                __vector_offset_229 = DEFINED (__vector_dispatch_229)?(. - _ebase_address):__vector_offset_default
 *(.vector_229)
                0x000000009d001824                . = ALIGN (0x4)
                0x0000000000001824                __vector_offset_230 = DEFINED (__vector_dispatch_230)?(. - _ebase_address):__vector_offset_default
 *(.vector_230)
                0x000000009d001824                . = ALIGN (0x4)
                0x0000000000001824                __vector_offset_231 = DEFINED (__vector_dispatch_231)?(. - _ebase_address):__vector_offset_default
 *(.vector_231)
                0x000000009d001824                . = ALIGN (0x4)
                0x0000000000001824                __vector_offset_232 = DEFINED (__vector_dispatch_232)?(. - _ebase_address):__vector_offset_default
 *(.vector_232)
                0x000000009d001824                . = ALIGN (0x4)
                0x0000000000001824                __vector_offset_233 = DEFINED (__vector_dispatch_233)?(. - _ebase_address):__vector_offset_default
 *(.vector_233)
                0x000000009d001824                . = ALIGN (0x4)
                0x0000000000001824                __vector_offset_234 = DEFINED (__vector_dispatch_234)?(. - _ebase_address):__vector_offset_default
 *(.vector_234)
                0x000000009d001824                . = ALIGN (0x4)
                0x0000000000001824                __vector_offset_235 = DEFINED (__vector_dispatch_235)?(. - _ebase_address):__vector_offset_default
 *(.vector_235)
                0x000000009d001824                . = ALIGN (0x4)
                0x0000000000001824                __vector_offset_236 = DEFINED (__vector_dispatch_236)?(. - _ebase_address):__vector_offset_default
 *(.vector_236)
                0x000000009d001824                . = ALIGN (0x4)
                0x0000000000001824                __vector_offset_237 = DEFINED (__vector_dispatch_237)?(. - _ebase_address):__vector_offset_default
 *(.vector_237)
                0x000000009d001824                . = ALIGN (0x4)
                0x0000000000001824                __vector_offset_238 = DEFINED (__vector_dispatch_238)?(. - _ebase_address):__vector_offset_default
 *(.vector_238)
                0x000000009d001824                . = ALIGN (0x4)
                0x0000000000001824                __vector_offset_239 = DEFINED (__vector_dispatch_239)?(. - _ebase_address):__vector_offset_default
 *(.vector_239)
                0x000000009d001824                . = ALIGN (0x4)
                0x0000000000001824                __vector_offset_240 = DEFINED (__vector_dispatch_240)?(. - _ebase_address):__vector_offset_default
 *(.vector_240)
                0x000000009d001824                . = ALIGN (0x4)
                0x0000000000001824                __vector_offset_241 = DEFINED (__vector_dispatch_241)?(. - _ebase_address):__vector_offset_default
 *(.vector_241)
                0x000000009d001824                . = ALIGN (0x4)
                0x0000000000001824                __vector_offset_242 = DEFINED (__vector_dispatch_242)?(. - _ebase_address):__vector_offset_default
 *(.vector_242)
                0x000000009d001824                . = ALIGN (0x4)
                0x0000000000001824                __vector_offset_243 = DEFINED (__vector_dispatch_243)?(. - _ebase_address):__vector_offset_default
 *(.vector_243)
                0x000000009d001824                . = ALIGN (0x4)
                0x0000000000001824                __vector_offset_244 = DEFINED (__vector_dispatch_244)?(. - _ebase_address):__vector_offset_default
 *(.vector_244)
                0x000000009d001824                . = ALIGN (0x4)
                0x0000000000001824                __vector_offset_245 = DEFINED (__vector_dispatch_245)?(. - _ebase_address):__vector_offset_default
 *(.vector_245)
                0x000000009d001824                . = ALIGN (0x4)
                0x0000000000001824                __vector_offset_246 = DEFINED (__vector_dispatch_246)?(. - _ebase_address):__vector_offset_default
 *(.vector_246)
                0x000000009d001824                . = ALIGN (0x4)
                0x0000000000001824                __vector_offset_247 = DEFINED (__vector_dispatch_247)?(. - _ebase_address):__vector_offset_default
 *(.vector_247)
                0x000000009d001824                . = ALIGN (0x4)
                0x0000000000001824                __vector_offset_248 = DEFINED (__vector_dispatch_248)?(. - _ebase_address):__vector_offset_default
 *(.vector_248)
                0x000000009d001824                . = ALIGN (0x4)
                0x0000000000001824                __vector_offset_249 = DEFINED (__vector_dispatch_249)?(. - _ebase_address):__vector_offset_default
 *(.vector_249)
                0x000000009d001824                . = ALIGN (0x4)
                0x0000000000001824                __vector_offset_250 = DEFINED (__vector_dispatch_250)?(. - _ebase_address):__vector_offset_default
 *(.vector_250)
                0x000000009d001824                . = ALIGN (0x4)
                0x0000000000001824                __vector_offset_251 = DEFINED (__vector_dispatch_251)?(. - _ebase_address):__vector_offset_default
 *(.vector_251)
                0x000000009d001824                . = ALIGN (0x4)
                0x0000000000001824                __vector_offset_252 = DEFINED (__vector_dispatch_252)?(. - _ebase_address):__vector_offset_default
 *(.vector_252)
                0x000000009d001824                . = ALIGN (0x4)
                0x0000000000001824                __vector_offset_253 = DEFINED (__vector_dispatch_253)?(. - _ebase_address):__vector_offset_default
 *(.vector_253)
                0x000000009d001824                . = ALIGN (0x4)
                0x0000000000001824                __vector_offset_254 = DEFINED (__vector_dispatch_254)?(. - _ebase_address):__vector_offset_default
 *(.vector_254)
                0x000000009d001824                . = ALIGN (0x4)
                0x0000000000001824                __vector_offset_255 = DEFINED (__vector_dispatch_255)?(. - _ebase_address):__vector_offset_default
 *(.vector_255)
                0x000000009d001824                . = ALIGN (0x4)
                0x0000000000001824                __vector_offset_default = (. - _ebase_address)
 *(.vector_default)
 .vector_default
                0x000000009d001824       0x48 c:/program files/microchip/xc32/v4.00/bin/bin/../../lib/gcc/pic32mx/8.3.1/../../../../pic32mx/lib/fpu64\libpic32.a(defaultinterrupt.o)
                0x000000009d001824                _DefaultInterrupt

.startup
 *(.startup)

.text           0x000000009d00186c        0x0
 *(.stub .gnu.linkonce.t.*)
 *(.text.*personality*)
 *(.mips16.fn.*)
 *(.mips16.call.*)
 *(.gnu.warning)
                0x000000009d00186c                . = ALIGN (0x4)

.init           0x000000009d00186c        0x0
 *crti.o(.init)
 *crtbegin.o(.init)
 *(EXCLUDE_FILE(*crtn.o *crtend?.o *crtend.o) .init)
 *crtend.o(.init)
 *crtn.o(.init)
                0x000000009d00186c                . = ALIGN (0x4)

.fini           0x000000009d00186c        0x0
 *(.fini)
                0x000000009d00186c                . = ALIGN (0x4)

.preinit_array  0x000000009d00186c        0x0
                [!provide]                        PROVIDE (__preinit_array_start = .)
 *(.preinit_array)
                [!provide]                        PROVIDE (__preinit_array_end = .)
                0x000000009d00186c                . = ALIGN (0x4)

.init_array     0x000000009d00186c        0x0
                [!provide]                        PROVIDE (__init_array_start = .)
 *(SORT_BY_NAME(.init_array.*))
 *(.init_array)
                [!provide]                        PROVIDE (__init_array_end = .)
                0x000000009d00186c                . = ALIGN (0x4)

.fini_array     0x000000009d00186c        0x0
                [!provide]                        PROVIDE (__fini_array_start = .)
 *(SORT_BY_NAME(.fini_array.*))
 *(.fini_array)
                [!provide]                        PROVIDE (__fini_array_end = .)
                0x000000009d00186c                . = ALIGN (0x4)

.ctors          0x000000009d00186c        0x0
 *crtbegin.o(.ctors)
 *crtbegin?.o(.ctors)
 *(EXCLUDE_FILE(*crtend?.o *crtend.o) .ctors)
 *(SORT_BY_NAME(.ctors.*))
 *(.ctors)
                0x000000009d00186c                . = ALIGN (0x4)

.dtors          0x000000009d00186c        0x0
 *crtbegin.o(.dtors)
 *crtbegin?.o(.dtors)
 *(EXCLUDE_FILE(*crtend?.o *crtend.o) .dtors)
 *(SORT_BY_NAME(.dtors.*))
 *(.dtors)
                0x000000009d00186c                . = ALIGN (0x4)

.rodata         0x000000009d00186c        0x0
 *(.gnu.linkonce.r.*)
 *(.rodata1)
                0x000000009d00186c                . = ALIGN (0x4)

.sdata2         0x000000009d00186c        0x0
 *(.sdata2 .sdata2.* .gnu.linkonce.s2.*)
                0x000000009d00186c                . = ALIGN (0x4)

.sbss2          0x000000009d00186c        0x0
 *(.sbss2 .sbss2.* .gnu.linkonce.sb2.*)
                0x000000009d00186c                . = ALIGN (0x4)

.eh_frame_hdr
 *(.eh_frame_hdr)
                0x000000009d00186c                . = ALIGN (0x4)

.eh_frame
 *(.eh_frame)
                0x000000009d00186c                . = ALIGN (0x4)

.gcc_except_table
 *(.gcc_except_table .gcc_except_table.*)
                0x000000009d00186c                . = ALIGN (0x4)

.dbg_data       0x0000000080000370        0x0
                0x0000000080000370                . = (. + DEFINED (_DEBUGGER)?0x200:0x0)
                0x0000000080000370                . = (. + DEFINED (_DEBUGGER)?0x80:0x0)
                0x0000000080000370                . = (. + DEFINED (_DEBUGGER)?0x100:0x0)

.jcr            0x0000000080000370        0x0
 *(.jcr)
                0x0000000080000370                . = ALIGN (0x4)

.eh_frame
 *(.eh_frame)
                0x0000000080000370                . = ALIGN (0x4)

.gcc_except_table
 *(.gcc_except_table .gcc_except_table.*)
                0x0000000080000370                . = ALIGN (0x4)

.persist        0x0000000080000370        0x0
                0x0000000080000370                _persist_begin = .
 *(.persist .persist.*)
                0x0000000080000370                . = ALIGN (0x4)
                0x0000000080000370                _persist_end = .

.data           0x0000000080000370        0x0
 *(.gnu.linkonce.d.*)
 *(.data1)
                0x0000000080000370                . = ALIGN (0x4)
                0x0000000080000370                . = .
                0x0000000080008360                _gp = (ALIGN (0x10) + 0x7ff0)

.got            0x0000000080000370        0x0
 *(.got.plt)
 *(.got)
                0x0000000080000370                . = ALIGN (0x4)

.sdata          0x0000000080000370        0xc
                0x0000000080000370                _sdata_begin = .
 *(.sdata .sdata.* .gnu.linkonce.s.*)
 .sdata         0x0000000080000370        0x2 build/default/debug/_ext/101884895/sys_time.o
 *fill*         0x0000000080000372        0x2 
 .sdata         0x0000000080000374        0x4 build/default/debug/_ext/1360937237/GNSStasks.o
                0x0000000080000374                timeout
 .sdata         0x0000000080000378        0x4 build/default/debug/_ext/951553261/port.o
                0x0000000080000378                uxInterruptNesting
                0x000000008000037c                . = ALIGN (0x4)
                0x000000008000037c                _sdata_end = .

.lit8
 *(.lit8)

.lit4
 *(.lit4)
                0x000000008000037c                . = ALIGN (0x4)
                0x000000008000037c                _data_end = .
                0x000000008000037c                _bss_begin = .

.sbss           0x000000008000037c       0x70
                0x000000008000037c                _sbss_begin = .
 *(.dynsbss)
 *(.sbss .sbss.* .gnu.linkonce.sb.*)
 .sbss          0x000000008000037c        0x8 build/default/debug/_ext/60181895/plib_tmr2.o
 .sbss          0x0000000080000384        0x4 build/default/debug/_ext/1171490990/initialization.o
                0x0000000080000384                sysObj
 .sbss          0x0000000080000388       0x18 build/default/debug/_ext/1171490990/tasks.o
                0x0000000080000388                xTaskSendUBXheartbeat
                0x000000008000038c                xTaskSendUBXmessage
                0x0000000080000390                xTaskProcessUBXmessage
                0x0000000080000394                xTaskGetUART1bytes
                0x0000000080000398                xUBXMutex
                0x000000008000039c                xUBXqueue
 .sbss          0x00000000800003a0        0x3 build/default/debug/_ext/1360937237/GNSStasks.o
 *fill*         0x00000000800003a3        0x1 
 .sbss          0x00000000800003a4        0x8 build/default/debug/_ext/1665200909/heap_1.o
 .sbss          0x00000000800003ac        0x4 build/default/debug/_ext/951553261/port.o
                0x00000000800003ac                uxSavedTaskStackPointer
 .sbss          0x00000000800003b0       0x3c build/default/debug/_ext/404212886/FreeRTOS_tasks.o
                0x00000000800003b0                uxSchedulerSuspended
                0x00000000800003b4                xIdleTaskHandle
                0x00000000800003b8                xNextTaskUnblockTime
                0x00000000800003bc                uxTaskNumber
                0x00000000800003c0                xNumOfOverflows
                0x00000000800003c4                xYieldPending
                0x00000000800003c8                xPendedTicks
                0x00000000800003cc                xSchedulerRunning
                0x00000000800003d0                uxTopReadyPriority
                0x00000000800003d4                xTickCount
                0x00000000800003d8                uxCurrentNumberOfTasks
                0x00000000800003dc                uxDeletedTasksWaitingCleanUp
                0x00000000800003e0                pxOverflowDelayedTaskList
                0x00000000800003e4                pxDelayedTaskList
                0x00000000800003e8                pxCurrentTCB
 *(.scommon)
                0x00000000800003ec                _sbss_end = .
                0x00000000800003ec                . = ALIGN (0x4)

.bss            0x00000000800003ec        0x0
 *(.dynbss)
 *(COMMON)
                0x00000000800003ec                . = ALIGN ((. != 0x0)?0x4:0x1)
                0x00000000800003ec                . = ALIGN (0x4)
                0x00000000800003ec                _end = .
                0x00000000800003ec                _bss_end = .
                0x0000000000020000                _bmxdudba_address = LENGTH (kseg0_data_mem)
                0x0000000000020000                _bmxdupba_address = LENGTH (kseg0_data_mem)

/DISCARD/
 *(.pdr)
 *(.rel.dyn)
 *(.note.GNU-stack)
 *(.note.GNU-stack)
 *(.gnu_debuglink)
 *(.gnu.lto_*)
 *(.discard)

.gptab.sdata
 *(.gptab.data)
 *(.gptab.sdata)

.gptab.sbss
 *(.gptab.bss)
 *(.gptab.sbss)

.mdebug.abi32   0x0000000000000000        0x0
 *(.mdebug.abi32)
 .mdebug.abi32  0x0000000000000000        0x0 c:/program files/microchip/xc32/v4.00/bin/bin/../../lib/gcc/pic32mx/8.3.1/../../../../pic32mx/lib/fpu64\software-debug-break.o
 .mdebug.abi32  0x0000000000000000        0x0 build/default/debug/_ext/1529399856/osal_freertos.o
 .mdebug.abi32  0x0000000000000000        0x0 build/default/debug/_ext/1984168316/plib_canfd1.o
 .mdebug.abi32  0x0000000000000000        0x0 build/default/debug/_ext/60165520/plib_clk.o
 .mdebug.abi32  0x0000000000000000        0x0 build/default/debug/_ext/1865161661/plib_dmac.o
 .mdebug.abi32  0x0000000000000000        0x0 build/default/debug/_ext/1865200349/plib_evic.o
 .mdebug.abi32  0x0000000000000000        0x0 build/default/debug/_ext/1865254177/plib_gpio.o
 .mdebug.abi32  0x0000000000000000        0x0 build/default/debug/_ext/60181895/plib_tmr2.o
 .mdebug.abi32  0x0000000000000000        0x0 build/default/debug/_ext/1865657120/plib_uart1.o
 .mdebug.abi32  0x0000000000000000        0x0 build/default/debug/_ext/163028504/xc32_monitor.o
 .mdebug.abi32  0x0000000000000000        0x0 build/default/debug/_ext/1881668453/sys_int.o
 .mdebug.abi32  0x0000000000000000        0x0 build/default/debug/_ext/101884895/sys_time.o
 .mdebug.abi32  0x0000000000000000        0x0 build/default/debug/_ext/1171490990/initialization.o
 .mdebug.abi32  0x0000000000000000        0x0 build/default/debug/_ext/1171490990/interrupts.o
 .mdebug.abi32  0x0000000000000000        0x0 build/default/debug/_ext/1171490990/exceptions.o
 .mdebug.abi32  0x0000000000000000        0x0 build/default/debug/_ext/1171490990/freertos_hooks.o
 .mdebug.abi32  0x0000000000000000        0x0 build/default/debug/_ext/1171490990/tasks.o
 .mdebug.abi32  0x0000000000000000        0x0 build/default/debug/_ext/1360937237/GNSStasks.o
 .mdebug.abi32  0x0000000000000000        0x0 build/default/debug/_ext/1665200909/heap_1.o
 .mdebug.abi32  0x0000000000000000        0x0 build/default/debug/_ext/951553261/port.o
 .mdebug.abi32  0x0000000000000000        0x0 build/default/debug/_ext/404212886/croutine.o
 .mdebug.abi32  0x0000000000000000        0x0 build/default/debug/_ext/404212886/list.o
 .mdebug.abi32  0x0000000000000000        0x0 build/default/debug/_ext/404212886/queue.o
 .mdebug.abi32  0x0000000000000000        0x0 build/default/debug/_ext/404212886/FreeRTOS_tasks.o
 .mdebug.abi32  0x0000000000000000        0x0 build/default/debug/_ext/404212886/timers.o
 .mdebug.abi32  0x0000000000000000        0x0 build/default/debug/_ext/404212886/event_groups.o
 .mdebug.abi32  0x0000000000000000        0x0 build/default/debug/_ext/404212886/stream_buffer.o
 .mdebug.abi32  0x0000000000000000        0x0 build/default/debug/_ext/1360937237/main_pic32mk.o
 .mdebug.abi32  0x0000000000000000        0x0 c:/program files/microchip/xc32/v4.00/bin/bin/../../lib/gcc/pic32mx/8.3.1/fpu64\libgcc.a(_udivdi3.o)
 .mdebug.abi32  0x0000000000000000        0x0 c:/program files/microchip/xc32/v4.00/bin/bin/../../lib/gcc/pic32mx/8.3.1/../../../../pic32mx/lib/fpu64\libpic32.a(default-on-reset.o)
 .mdebug.abi32  0x0000000000000000        0x0 c:/program files/microchip/xc32/v4.00/bin/bin/../../lib/gcc/pic32mx/8.3.1/../../../../pic32mx/lib/fpu64\libpic32.a(default-on-bootstrap.o)
 .mdebug.abi32  0x0000000000000000        0x0 c:/program files/microchip/xc32/v4.00/bin/bin/../../lib/gcc/pic32mx/8.3.1/../../../../pic32mx/lib/fpu64\libpic32.a(defaultinterrupt.o)

.mdebug.abiN32
 *(.mdebug.abiN32)

.mdebug.abi64
 *(.mdebug.abi64)

.mdebug.abiO64
 *(.mdebug.abiO64)

.mdebug.eabi32
 *(.mdebug.eabi32)

.mdebug.eabi64
 *(.mdebug.eabi64)

.gcc_compiled_long32
 *(.gcc_compiled_long32)

.gcc_compiled_long64
 *(.gcc_compiled_long64)

.stab
 *(.stab)

.stabstr
 *(.stabstr)

.stab.excl
 *(.stab.excl)

.stab.exclstr
 *(.stab.exclstr)

.stab.index
 *(.stab.index)

.stab.indexstr
 *(.stab.indexstr)

.comment        0x0000000000000000       0x6b
 *(.comment)
 .comment       0x0000000000000000       0x53 c:/program files/microchip/xc32/v4.00/bin/bin/../../lib/gcc/pic32mx/8.3.1/../../../../pic32mx/lib/fpu64\software-debug-break.o
                                         0x54 (size before relaxing)
 .comment       0x0000000000000053       0x54 build/default/debug/_ext/1529399856/osal_freertos.o
 .comment       0x0000000000000053       0x54 build/default/debug/_ext/1984168316/plib_canfd1.o
 .comment       0x0000000000000053       0x54 build/default/debug/_ext/60165520/plib_clk.o
 .comment       0x0000000000000053       0x54 build/default/debug/_ext/1865161661/plib_dmac.o
 .comment       0x0000000000000053       0x54 build/default/debug/_ext/1865200349/plib_evic.o
 .comment       0x0000000000000053       0x54 build/default/debug/_ext/1865254177/plib_gpio.o
 .comment       0x0000000000000053       0x54 build/default/debug/_ext/60181895/plib_tmr2.o
 .comment       0x0000000000000053       0x54 build/default/debug/_ext/1865657120/plib_uart1.o
 .comment       0x0000000000000053       0x54 build/default/debug/_ext/163028504/xc32_monitor.o
 .comment       0x0000000000000053       0x54 build/default/debug/_ext/1881668453/sys_int.o
 .comment       0x0000000000000053       0x54 build/default/debug/_ext/101884895/sys_time.o
 .comment       0x0000000000000053       0x54 build/default/debug/_ext/1171490990/initialization.o
 .comment       0x0000000000000053       0x54 build/default/debug/_ext/1171490990/interrupts.o
 .comment       0x0000000000000053       0x54 build/default/debug/_ext/1171490990/exceptions.o
 .comment       0x0000000000000053       0x54 build/default/debug/_ext/1171490990/freertos_hooks.o
 .comment       0x0000000000000053       0x54 build/default/debug/_ext/1171490990/tasks.o
 .comment       0x0000000000000053       0x54 build/default/debug/_ext/1360937237/GNSStasks.o
 .comment       0x0000000000000053       0x54 build/default/debug/_ext/1665200909/heap_1.o
 .comment       0x0000000000000053       0x54 build/default/debug/_ext/951553261/port.o
 .comment       0x0000000000000053       0x54 build/default/debug/_ext/404212886/croutine.o
 .comment       0x0000000000000053       0x54 build/default/debug/_ext/404212886/list.o
 .comment       0x0000000000000053       0x54 build/default/debug/_ext/404212886/queue.o
 .comment       0x0000000000000053       0x54 build/default/debug/_ext/404212886/FreeRTOS_tasks.o
 .comment       0x0000000000000053       0x54 build/default/debug/_ext/404212886/timers.o
 .comment       0x0000000000000053       0x54 build/default/debug/_ext/404212886/event_groups.o
 .comment       0x0000000000000053       0x54 build/default/debug/_ext/404212886/stream_buffer.o
 .comment       0x0000000000000053       0x54 build/default/debug/_ext/1360937237/main_pic32mk.o
 .comment       0x0000000000000053       0x54 c:/program files/microchip/xc32/v4.00/bin/bin/../../lib/gcc/pic32mx/8.3.1/fpu64\libgcc.a(_udivdi3.o)
 .comment       0x0000000000000053       0x18 c:/program files/microchip/xc32/v4.00/bin/bin/../../lib/gcc/pic32mx/8.3.1/../../../../pic32mx/lib/fpu64\libpic32.a(memset.o)
                                         0x19 (size before relaxing)
 .comment       0x000000000000006b       0x54 c:/program files/microchip/xc32/v4.00/bin/bin/../../lib/gcc/pic32mx/8.3.1/../../../../pic32mx/lib/fpu64\libpic32.a(default-on-reset.o)
 .comment       0x000000000000006b       0x54 c:/program files/microchip/xc32/v4.00/bin/bin/../../lib/gcc/pic32mx/8.3.1/../../../../pic32mx/lib/fpu64\libpic32.a(default-on-bootstrap.o)
 .comment       0x000000000000006b       0x54 c:/program files/microchip/xc32/v4.00/bin/bin/../../lib/gcc/pic32mx/8.3.1/../../../../pic32mx/lib/fpu64\libpic32.a(defaultinterrupt.o)

.debug
 *.elf(.debug)
 *(.debug)

.line
 *.elf(.line)
 *(.line)

.debug_srcinfo
 *.elf(.debug_srcinfo)
 *(.debug_srcinfo)

.debug_sfnames
 *.elf(.debug_sfnames)
 *(.debug_sfnames)

.debug_aranges  0x0000000000000000      0xcb0
 *.elf(.debug_aranges)
 *(.debug_aranges)
 .debug_aranges
                0x0000000000000000       0x20 c:/program files/microchip/xc32/v4.00/bin/bin/../../lib/gcc/pic32mx/8.3.1/../../../../pic32mx/lib/fpu64\software-debug-break.o
 .debug_aranges
                0x0000000000000020       0x90 build/default/debug/_ext/1529399856/osal_freertos.o
 .debug_aranges
                0x00000000000000b0       0x80 build/default/debug/_ext/1984168316/plib_canfd1.o
 .debug_aranges
                0x0000000000000130       0x20 build/default/debug/_ext/60165520/plib_clk.o
 .debug_aranges
                0x0000000000000150       0x88 build/default/debug/_ext/1865161661/plib_dmac.o
 .debug_aranges
                0x00000000000001d8       0x68 build/default/debug/_ext/1865200349/plib_evic.o
 .debug_aranges
                0x0000000000000240       0x60 build/default/debug/_ext/1865254177/plib_gpio.o
 .debug_aranges
                0x00000000000002a0       0x70 build/default/debug/_ext/60181895/plib_tmr2.o
 .debug_aranges
                0x0000000000000310       0xa8 build/default/debug/_ext/1865657120/plib_uart1.o
 .debug_aranges
                0x00000000000003b8       0x28 build/default/debug/_ext/163028504/xc32_monitor.o
 .debug_aranges
                0x00000000000003e0       0x40 build/default/debug/_ext/1881668453/sys_int.o
 .debug_aranges
                0x0000000000000420      0x108 build/default/debug/_ext/101884895/sys_time.o
 .debug_aranges
                0x0000000000000528       0x20 build/default/debug/_ext/1171490990/initialization.o
 .debug_aranges
                0x0000000000000548       0x58 build/default/debug/_ext/1171490990/interrupts.o
 .debug_aranges
                0x00000000000005a0       0x28 build/default/debug/_ext/1171490990/exceptions.o
 .debug_aranges
                0x00000000000005c8       0x58 build/default/debug/_ext/1171490990/interrupts_a.o
 .debug_aranges
                0x0000000000000620       0x40 build/default/debug/_ext/1171490990/freertos_hooks.o
 .debug_aranges
                0x0000000000000660       0x40 build/default/debug/_ext/1171490990/tasks.o
 .debug_aranges
                0x00000000000006a0       0x78 build/default/debug/_ext/1360937237/GNSStasks.o
 .debug_aranges
                0x0000000000000718       0x38 build/default/debug/_ext/1665200909/heap_1.o
 .debug_aranges
                0x0000000000000750       0x58 build/default/debug/_ext/951553261/port.o
 .debug_aranges
                0x00000000000007a8       0x30 build/default/debug/_ext/951553261/port_asm.o
 .debug_aranges
                0x00000000000007d8       0x18 build/default/debug/_ext/404212886/croutine.o
 .debug_aranges
                0x00000000000007f0       0x40 build/default/debug/_ext/404212886/list.o
 .debug_aranges
                0x0000000000000830       0xc8 build/default/debug/_ext/404212886/queue.o
 .debug_aranges
                0x00000000000008f8      0x1b8 build/default/debug/_ext/404212886/FreeRTOS_tasks.o
 .debug_aranges
                0x0000000000000ab0       0x18 build/default/debug/_ext/404212886/timers.o
 .debug_aranges
                0x0000000000000ac8       0x60 build/default/debug/_ext/404212886/event_groups.o
 .debug_aranges
                0x0000000000000b28       0xa8 build/default/debug/_ext/404212886/stream_buffer.o
 .debug_aranges
                0x0000000000000bd0       0x20 build/default/debug/_ext/1360937237/main_pic32mk.o
 .debug_aranges
                0x0000000000000bf0       0x40 C:\Users\rkucb\AppData\Local\Temp\ccMUkNN3.o
 .debug_aranges
                0x0000000000000c30       0x20 c:/program files/microchip/xc32/v4.00/bin/bin/../../lib/gcc/pic32mx/8.3.1/fpu64\libgcc.a(_udivdi3.o)
 .debug_aranges
                0x0000000000000c50       0x20 c:/program files/microchip/xc32/v4.00/bin/bin/../../lib/gcc/pic32mx/8.3.1/../../../../pic32mx/lib/fpu64\libpic32.a(default-on-reset.o)
 .debug_aranges
                0x0000000000000c70       0x20 c:/program files/microchip/xc32/v4.00/bin/bin/../../lib/gcc/pic32mx/8.3.1/../../../../pic32mx/lib/fpu64\libpic32.a(default-on-bootstrap.o)
 .debug_aranges
                0x0000000000000c90       0x20 c:/program files/microchip/xc32/v4.00/bin/bin/../../lib/gcc/pic32mx/8.3.1/../../../../pic32mx/lib/fpu64\libpic32.a(defaultinterrupt.o)

.debug_pubnames
 *.elf(.debug_pubnames)
 *(.debug_pubnames)

.debug_info     0x0000000000000000   0xb4c4de
 *.elf(.debug_info .gnu.linkonce.wi.*)
 *(.debug_info .gnu.linkonce.wi.*)
 .debug_info    0x0000000000000000       0x3f c:/program files/microchip/xc32/v4.00/bin/bin/../../lib/gcc/pic32mx/8.3.1/../../../../pic32mx/lib/fpu64\software-debug-break.o
 .debug_info    0x000000000000003f    0x6f1d5 build/default/debug/_ext/1529399856/osal_freertos.o
 .debug_info    0x000000000006f214    0x6f1bd build/default/debug/_ext/1984168316/plib_canfd1.o
 .debug_info    0x00000000000de3d1    0x6eaf1 build/default/debug/_ext/60165520/plib_clk.o
 .debug_info    0x000000000014cec2    0x6f37b build/default/debug/_ext/1865161661/plib_dmac.o
 .debug_info    0x00000000001bc23d    0x6f243 build/default/debug/_ext/1865200349/plib_evic.o
 .debug_info    0x000000000022b480    0x6ed24 build/default/debug/_ext/1865254177/plib_gpio.o
 .debug_info    0x000000000029a1a4    0x6ec94 build/default/debug/_ext/60181895/plib_tmr2.o
 .debug_info    0x0000000000308e38    0x6f116 build/default/debug/_ext/1865657120/plib_uart1.o
 .debug_info    0x0000000000377f4e       0x8c build/default/debug/_ext/163028504/xc32_monitor.o
 .debug_info    0x0000000000377fda    0x6f1f3 build/default/debug/_ext/1881668453/sys_int.o
 .debug_info    0x00000000003e71cd    0x70869 build/default/debug/_ext/101884895/sys_time.o
 .debug_info    0x0000000000457a36    0x6f452 build/default/debug/_ext/1171490990/initialization.o
 .debug_info    0x00000000004c6e88    0x6ecd4 build/default/debug/_ext/1171490990/interrupts.o
 .debug_info    0x0000000000535b5c    0x6ec9f build/default/debug/_ext/1171490990/exceptions.o
 .debug_info    0x00000000005a47fb       0x22 build/default/debug/_ext/1171490990/interrupts_a.o
 .debug_info    0x00000000005a481d    0x6ec64 build/default/debug/_ext/1171490990/freertos_hooks.o
 .debug_info    0x0000000000613481    0x6ef3f build/default/debug/_ext/1171490990/tasks.o
 .debug_info    0x00000000006823c0    0x6f5d9 build/default/debug/_ext/1360937237/GNSStasks.o
 .debug_info    0x00000000006f1999    0x6ec92 build/default/debug/_ext/1665200909/heap_1.o
 .debug_info    0x000000000076062b    0x6ee13 build/default/debug/_ext/951553261/port.o
 .debug_info    0x00000000007cf43e       0x22 build/default/debug/_ext/951553261/port_asm.o
 .debug_info    0x00000000007cf460    0x6eaee build/default/debug/_ext/404212886/croutine.o
 .debug_info    0x000000000083df4e    0x6ed54 build/default/debug/_ext/404212886/list.o
 .debug_info    0x00000000008acca2    0x7097e build/default/debug/_ext/404212886/queue.o
 .debug_info    0x000000000091d620    0x7137c build/default/debug/_ext/404212886/FreeRTOS_tasks.o
 .debug_info    0x000000000098e99c    0x6eaee build/default/debug/_ext/404212886/timers.o
 .debug_info    0x00000000009fd48a    0x6f67e build/default/debug/_ext/404212886/event_groups.o
 .debug_info    0x0000000000a6cb08    0x704af build/default/debug/_ext/404212886/stream_buffer.o
 .debug_info    0x0000000000adcfb7    0x6ebeb build/default/debug/_ext/1360937237/main_pic32mk.o
 .debug_info    0x0000000000b4bba2       0x22 C:\Users\rkucb\AppData\Local\Temp\ccMUkNN3.o
 .debug_info    0x0000000000b4bbc4      0x85c c:/program files/microchip/xc32/v4.00/bin/bin/../../lib/gcc/pic32mx/8.3.1/fpu64\libgcc.a(_udivdi3.o)
 .debug_info    0x0000000000b4c420       0x3f c:/program files/microchip/xc32/v4.00/bin/bin/../../lib/gcc/pic32mx/8.3.1/../../../../pic32mx/lib/fpu64\libpic32.a(default-on-reset.o)
 .debug_info    0x0000000000b4c45f       0x3f c:/program files/microchip/xc32/v4.00/bin/bin/../../lib/gcc/pic32mx/8.3.1/../../../../pic32mx/lib/fpu64\libpic32.a(default-on-bootstrap.o)
 .debug_info    0x0000000000b4c49e       0x40 c:/program files/microchip/xc32/v4.00/bin/bin/../../lib/gcc/pic32mx/8.3.1/../../../../pic32mx/lib/fpu64\libpic32.a(defaultinterrupt.o)

.debug_abbrev   0x0000000000000000     0x4a70
 *.elf(.debug_abbrev)
 *(.debug_abbrev)
 .debug_abbrev  0x0000000000000000       0x2e c:/program files/microchip/xc32/v4.00/bin/bin/../../lib/gcc/pic32mx/8.3.1/../../../../pic32mx/lib/fpu64\software-debug-break.o
 .debug_abbrev  0x000000000000002e      0x2db build/default/debug/_ext/1529399856/osal_freertos.o
 .debug_abbrev  0x0000000000000309      0x34d build/default/debug/_ext/1984168316/plib_canfd1.o
 .debug_abbrev  0x0000000000000656      0x176 build/default/debug/_ext/60165520/plib_clk.o
 .debug_abbrev  0x00000000000007cc      0x3a9 build/default/debug/_ext/1865161661/plib_dmac.o
 .debug_abbrev  0x0000000000000b75      0x25d build/default/debug/_ext/1865200349/plib_evic.o
 .debug_abbrev  0x0000000000000dd2      0x1f1 build/default/debug/_ext/1865254177/plib_gpio.o
 .debug_abbrev  0x0000000000000fc3      0x225 build/default/debug/_ext/60181895/plib_tmr2.o
 .debug_abbrev  0x00000000000011e8      0x349 build/default/debug/_ext/1865657120/plib_uart1.o
 .debug_abbrev  0x0000000000001531       0x88 build/default/debug/_ext/163028504/xc32_monitor.o
 .debug_abbrev  0x00000000000015b9      0x277 build/default/debug/_ext/1881668453/sys_int.o
 .debug_abbrev  0x0000000000001830      0x61e build/default/debug/_ext/101884895/sys_time.o
 .debug_abbrev  0x0000000000001e4e      0x2a5 build/default/debug/_ext/1171490990/initialization.o
 .debug_abbrev  0x00000000000020f3      0x1de build/default/debug/_ext/1171490990/interrupts.o
 .debug_abbrev  0x00000000000022d1      0x1ce build/default/debug/_ext/1171490990/exceptions.o
 .debug_abbrev  0x000000000000249f       0x12 build/default/debug/_ext/1171490990/interrupts_a.o
 .debug_abbrev  0x00000000000024b1      0x21d build/default/debug/_ext/1171490990/freertos_hooks.o
 .debug_abbrev  0x00000000000026ce      0x257 build/default/debug/_ext/1171490990/tasks.o
 .debug_abbrev  0x0000000000002925      0x365 build/default/debug/_ext/1360937237/GNSStasks.o
 .debug_abbrev  0x0000000000002c8a      0x292 build/default/debug/_ext/1665200909/heap_1.o
 .debug_abbrev  0x0000000000002f1c      0x37e build/default/debug/_ext/951553261/port.o
 .debug_abbrev  0x000000000000329a       0x12 build/default/debug/_ext/951553261/port_asm.o
 .debug_abbrev  0x00000000000032ac      0x156 build/default/debug/_ext/404212886/croutine.o
 .debug_abbrev  0x0000000000003402      0x20e build/default/debug/_ext/404212886/list.o
 .debug_abbrev  0x0000000000003610      0x3e8 build/default/debug/_ext/404212886/queue.o
 .debug_abbrev  0x00000000000039f8      0x3c0 build/default/debug/_ext/404212886/FreeRTOS_tasks.o
 .debug_abbrev  0x0000000000003db8      0x156 build/default/debug/_ext/404212886/timers.o
 .debug_abbrev  0x0000000000003f0e      0x321 build/default/debug/_ext/404212886/event_groups.o
 .debug_abbrev  0x000000000000422f      0x3eb build/default/debug/_ext/404212886/stream_buffer.o
 .debug_abbrev  0x000000000000461a      0x1df build/default/debug/_ext/1360937237/main_pic32mk.o
 .debug_abbrev  0x00000000000047f9       0x12 C:\Users\rkucb\AppData\Local\Temp\ccMUkNN3.o
 .debug_abbrev  0x000000000000480b      0x1d8 c:/program files/microchip/xc32/v4.00/bin/bin/../../lib/gcc/pic32mx/8.3.1/fpu64\libgcc.a(_udivdi3.o)
 .debug_abbrev  0x00000000000049e3       0x2e c:/program files/microchip/xc32/v4.00/bin/bin/../../lib/gcc/pic32mx/8.3.1/../../../../pic32mx/lib/fpu64\libpic32.a(default-on-reset.o)
 .debug_abbrev  0x0000000000004a11       0x2e c:/program files/microchip/xc32/v4.00/bin/bin/../../lib/gcc/pic32mx/8.3.1/../../../../pic32mx/lib/fpu64\libpic32.a(default-on-bootstrap.o)
 .debug_abbrev  0x0000000000004a3f       0x31 c:/program files/microchip/xc32/v4.00/bin/bin/../../lib/gcc/pic32mx/8.3.1/../../../../pic32mx/lib/fpu64\libpic32.a(defaultinterrupt.o)

.debug_line     0x0000000000000000     0xbad1
 *.elf(.debug_line)
 *(.debug_line)
 .debug_line    0x0000000000000000       0xb1 c:/program files/microchip/xc32/v4.00/bin/bin/../../lib/gcc/pic32mx/8.3.1/../../../../pic32mx/lib/fpu64\software-debug-break.o
 .debug_line    0x00000000000000b1      0x550 build/default/debug/_ext/1529399856/osal_freertos.o
 .debug_line    0x0000000000000601      0x710 build/default/debug/_ext/1984168316/plib_canfd1.o
 .debug_line    0x0000000000000d11      0x21f build/default/debug/_ext/60165520/plib_clk.o
 .debug_line    0x0000000000000f30      0x830 build/default/debug/_ext/1865161661/plib_dmac.o
 .debug_line    0x0000000000001760      0x372 build/default/debug/_ext/1865200349/plib_evic.o
 .debug_line    0x0000000000001ad2      0x39b build/default/debug/_ext/1865254177/plib_gpio.o
 .debug_line    0x0000000000001e6d      0x31f build/default/debug/_ext/60181895/plib_tmr2.o
 .debug_line    0x000000000000218c      0x786 build/default/debug/_ext/1865657120/plib_uart1.o
 .debug_line    0x0000000000002912       0xa1 build/default/debug/_ext/163028504/xc32_monitor.o
 .debug_line    0x00000000000029b3      0x2a8 build/default/debug/_ext/1881668453/sys_int.o
 .debug_line    0x0000000000002c5b     0x1061 build/default/debug/_ext/101884895/sys_time.o
 .debug_line    0x0000000000003cbc      0x6a3 build/default/debug/_ext/1171490990/initialization.o
 .debug_line    0x000000000000435f      0x373 build/default/debug/_ext/1171490990/interrupts.o
 .debug_line    0x00000000000046d2      0x353 build/default/debug/_ext/1171490990/exceptions.o
 .debug_line    0x0000000000004a25      0x105 build/default/debug/_ext/1171490990/interrupts_a.o
 .debug_line    0x0000000000004b2a      0x31a build/default/debug/_ext/1171490990/freertos_hooks.o
 .debug_line    0x0000000000004e44      0x450 build/default/debug/_ext/1171490990/tasks.o
 .debug_line    0x0000000000005294      0xb15 build/default/debug/_ext/1360937237/GNSStasks.o
 .debug_line    0x0000000000005da9      0x378 build/default/debug/_ext/1665200909/heap_1.o
 .debug_line    0x0000000000006121      0x417 build/default/debug/_ext/951553261/port.o
 .debug_line    0x0000000000006538      0x131 build/default/debug/_ext/951553261/port_asm.o
 .debug_line    0x0000000000006669      0x1b5 build/default/debug/_ext/404212886/croutine.o
 .debug_line    0x000000000000681e      0x3fa build/default/debug/_ext/404212886/list.o
 .debug_line    0x0000000000006c18     0x1170 build/default/debug/_ext/404212886/queue.o
 .debug_line    0x0000000000007d88     0x1b21 build/default/debug/_ext/404212886/FreeRTOS_tasks.o
 .debug_line    0x00000000000098a9      0x1b5 build/default/debug/_ext/404212886/timers.o
 .debug_line    0x0000000000009a5e      0x7a6 build/default/debug/_ext/404212886/event_groups.o
 .debug_line    0x000000000000a204      0xdc8 build/default/debug/_ext/404212886/stream_buffer.o
 .debug_line    0x000000000000afcc      0x307 build/default/debug/_ext/1360937237/main_pic32mk.o
 .debug_line    0x000000000000b2d3      0x155 C:\Users\rkucb\AppData\Local\Temp\ccMUkNN3.o
 .debug_line    0x000000000000b428      0x490 c:/program files/microchip/xc32/v4.00/bin/bin/../../lib/gcc/pic32mx/8.3.1/fpu64\libgcc.a(_udivdi3.o)
 .debug_line    0x000000000000b8b8       0xa6 c:/program files/microchip/xc32/v4.00/bin/bin/../../lib/gcc/pic32mx/8.3.1/../../../../pic32mx/lib/fpu64\libpic32.a(default-on-reset.o)
 .debug_line    0x000000000000b95e       0xaa c:/program files/microchip/xc32/v4.00/bin/bin/../../lib/gcc/pic32mx/8.3.1/../../../../pic32mx/lib/fpu64\libpic32.a(default-on-bootstrap.o)
 .debug_line    0x000000000000ba08       0xc9 c:/program files/microchip/xc32/v4.00/bin/bin/../../lib/gcc/pic32mx/8.3.1/../../../../pic32mx/lib/fpu64\libpic32.a(defaultinterrupt.o)

.debug_frame    0x0000000000000000     0x1e88
 *.elf(.debug_frame)
 *(.debug_frame)
 .debug_frame   0x0000000000000000       0x20 c:/program files/microchip/xc32/v4.00/bin/bin/../../lib/gcc/pic32mx/8.3.1/../../../../pic32mx/lib/fpu64\software-debug-break.o
 .debug_frame   0x0000000000000020      0x1b0 build/default/debug/_ext/1529399856/osal_freertos.o
 .debug_frame   0x00000000000001d0       0xe0 build/default/debug/_ext/1984168316/plib_canfd1.o
 .debug_frame   0x00000000000002b0       0x20 build/default/debug/_ext/60165520/plib_clk.o
 .debug_frame   0x00000000000002d0      0x11c build/default/debug/_ext/1865161661/plib_dmac.o
 .debug_frame   0x00000000000003ec       0xd4 build/default/debug/_ext/1865200349/plib_evic.o
 .debug_frame   0x00000000000004c0       0xa0 build/default/debug/_ext/1865254177/plib_gpio.o
 .debug_frame   0x0000000000000560       0xcc build/default/debug/_ext/60181895/plib_tmr2.o
 .debug_frame   0x000000000000062c      0x15c build/default/debug/_ext/1865657120/plib_uart1.o
 .debug_frame   0x0000000000000788       0x30 build/default/debug/_ext/163028504/xc32_monitor.o
 .debug_frame   0x00000000000007b8       0xa0 build/default/debug/_ext/1881668453/sys_int.o
 .debug_frame   0x0000000000000858      0x390 build/default/debug/_ext/101884895/sys_time.o
 .debug_frame   0x0000000000000be8       0x2c build/default/debug/_ext/1171490990/initialization.o
 .debug_frame   0x0000000000000c14       0xcc build/default/debug/_ext/1171490990/interrupts.o
 .debug_frame   0x0000000000000ce0       0x40 build/default/debug/_ext/1171490990/exceptions.o
 .debug_frame   0x0000000000000d20       0x7c build/default/debug/_ext/1171490990/freertos_hooks.o
 .debug_frame   0x0000000000000d9c       0x90 build/default/debug/_ext/1171490990/tasks.o
 .debug_frame   0x0000000000000e2c      0x11c build/default/debug/_ext/1360937237/GNSStasks.o
 .debug_frame   0x0000000000000f48       0x6c build/default/debug/_ext/1665200909/heap_1.o
 .debug_frame   0x0000000000000fb4       0xdc build/default/debug/_ext/951553261/port.o
 .debug_frame   0x0000000000001090       0x60 build/default/debug/_ext/404212886/list.o
 .debug_frame   0x00000000000010f0      0x30c build/default/debug/_ext/404212886/queue.o
 .debug_frame   0x00000000000013fc      0x630 build/default/debug/_ext/404212886/FreeRTOS_tasks.o
 .debug_frame   0x0000000000001a2c      0x144 build/default/debug/_ext/404212886/event_groups.o
 .debug_frame   0x0000000000001b70      0x270 build/default/debug/_ext/404212886/stream_buffer.o
 .debug_frame   0x0000000000001de0       0x28 build/default/debug/_ext/1360937237/main_pic32mk.o
 .debug_frame   0x0000000000001e08       0x20 c:/program files/microchip/xc32/v4.00/bin/bin/../../lib/gcc/pic32mx/8.3.1/fpu64\libgcc.a(_udivdi3.o)
 .debug_frame   0x0000000000001e28       0x20 c:/program files/microchip/xc32/v4.00/bin/bin/../../lib/gcc/pic32mx/8.3.1/../../../../pic32mx/lib/fpu64\libpic32.a(default-on-reset.o)
 .debug_frame   0x0000000000001e48       0x20 c:/program files/microchip/xc32/v4.00/bin/bin/../../lib/gcc/pic32mx/8.3.1/../../../../pic32mx/lib/fpu64\libpic32.a(default-on-bootstrap.o)
 .debug_frame   0x0000000000001e68       0x20 c:/program files/microchip/xc32/v4.00/bin/bin/../../lib/gcc/pic32mx/8.3.1/../../../../pic32mx/lib/fpu64\libpic32.a(defaultinterrupt.o)

.debug_str      0x0000000000000000   0x450a66
 *.elf(.debug_str)
 *(.debug_str)
 .debug_str     0x0000000000000000      0x3b0 c:/program files/microchip/xc32/v4.00/bin/bin/../../lib/gcc/pic32mx/8.3.1/../../../../pic32mx/lib/fpu64\software-debug-break.o
 .debug_str     0x00000000000003b0    0x2a474 build/default/debug/_ext/1529399856/osal_freertos.o
 .debug_str     0x000000000002a824    0x2a590 build/default/debug/_ext/1984168316/plib_canfd1.o
 .debug_str     0x0000000000054db4    0x2a0b7 build/default/debug/_ext/60165520/plib_clk.o
 .debug_str     0x000000000007ee6b    0x2a5a9 build/default/debug/_ext/1865161661/plib_dmac.o
 .debug_str     0x00000000000a9414    0x2b475 build/default/debug/_ext/1865200349/plib_evic.o
 .debug_str     0x00000000000d4889    0x2a1af build/default/debug/_ext/1865254177/plib_gpio.o
 .debug_str     0x00000000000fea38    0x2a1ba build/default/debug/_ext/60181895/plib_tmr2.o
 .debug_str     0x0000000000128bf2    0x2a4b5 build/default/debug/_ext/1865657120/plib_uart1.o
 .debug_str     0x00000000001530a7      0x2d6 build/default/debug/_ext/163028504/xc32_monitor.o
 .debug_str     0x000000000015337d    0x2b466 build/default/debug/_ext/1881668453/sys_int.o
 .debug_str     0x000000000017e7e3    0x2bccf build/default/debug/_ext/101884895/sys_time.o
 .debug_str     0x00000000001aa4b2    0x2b731 build/default/debug/_ext/1171490990/initialization.o
 .debug_str     0x00000000001d5be3    0x2a26b build/default/debug/_ext/1171490990/interrupts.o
 .debug_str     0x00000000001ffe4e    0x2a27b build/default/debug/_ext/1171490990/exceptions.o
 .debug_str     0x000000000022a0c9       0x66 build/default/debug/_ext/1171490990/interrupts_a.o
 .debug_str     0x000000000022a12f    0x2a1a0 build/default/debug/_ext/1171490990/freertos_hooks.o
 .debug_str     0x00000000002542cf    0x2a336 build/default/debug/_ext/1171490990/tasks.o
 .debug_str     0x000000000027e605    0x2a6da build/default/debug/_ext/1360937237/GNSStasks.o
 .debug_str     0x00000000002a8cdf    0x2a1a8 build/default/debug/_ext/1665200909/heap_1.o
 .debug_str     0x00000000002d2e87    0x2a28f build/default/debug/_ext/951553261/port.o
 .debug_str     0x00000000002fd116       0x8b build/default/debug/_ext/951553261/port_asm.o
 .debug_str     0x00000000002fd1a1    0x2a0ca build/default/debug/_ext/404212886/croutine.o
 .debug_str     0x000000000032726b    0x2a1f4 build/default/debug/_ext/404212886/list.o
 .debug_str     0x000000000035145f    0x2a88f build/default/debug/_ext/404212886/queue.o
 .debug_str     0x000000000037bcee    0x2adc3 build/default/debug/_ext/404212886/FreeRTOS_tasks.o
 .debug_str     0x00000000003a6ab1    0x2a0c8 build/default/debug/_ext/404212886/timers.o
 .debug_str     0x00000000003d0b79    0x2a528 build/default/debug/_ext/404212886/event_groups.o
 .debug_str     0x00000000003fb0a1    0x2a76c build/default/debug/_ext/404212886/stream_buffer.o
 .debug_str     0x000000000042580d    0x2a173 build/default/debug/_ext/1360937237/main_pic32mk.o
 .debug_str     0x000000000044f980       0xa4 C:\Users\rkucb\AppData\Local\Temp\ccMUkNN3.o
 .debug_str     0x000000000044fa24      0x552 c:/program files/microchip/xc32/v4.00/bin/bin/../../lib/gcc/pic32mx/8.3.1/fpu64\libgcc.a(_udivdi3.o)
 .debug_str     0x000000000044ff76      0x39a c:/program files/microchip/xc32/v4.00/bin/bin/../../lib/gcc/pic32mx/8.3.1/../../../../pic32mx/lib/fpu64\libpic32.a(default-on-reset.o)
 .debug_str     0x0000000000450310      0x3a2 c:/program files/microchip/xc32/v4.00/bin/bin/../../lib/gcc/pic32mx/8.3.1/../../../../pic32mx/lib/fpu64\libpic32.a(default-on-bootstrap.o)
 .debug_str     0x00000000004506b2      0x3b4 c:/program files/microchip/xc32/v4.00/bin/bin/../../lib/gcc/pic32mx/8.3.1/../../../../pic32mx/lib/fpu64\libpic32.a(defaultinterrupt.o)

.debug_loc      0x0000000000000000     0xd8dc
 *.elf(.debug_loc)
 *(.debug_loc)
 .debug_loc     0x0000000000000000      0x76e build/default/debug/_ext/1529399856/osal_freertos.o
 .debug_loc     0x000000000000076e      0x714 build/default/debug/_ext/1984168316/plib_canfd1.o
 .debug_loc     0x0000000000000e82      0xc4b build/default/debug/_ext/1865161661/plib_dmac.o
 .debug_loc     0x0000000000001acd      0x149 build/default/debug/_ext/1865200349/plib_evic.o
 .debug_loc     0x0000000000001c16      0x172 build/default/debug/_ext/1865254177/plib_gpio.o
 .debug_loc     0x0000000000001d88       0x2c build/default/debug/_ext/60181895/plib_tmr2.o
 .debug_loc     0x0000000000001db4      0x454 build/default/debug/_ext/1865657120/plib_uart1.o
 .debug_loc     0x0000000000002208      0x1c4 build/default/debug/_ext/1881668453/sys_int.o
 .debug_loc     0x00000000000023cc     0x1b06 build/default/debug/_ext/101884895/sys_time.o
 .debug_loc     0x0000000000003ed2       0x51 build/default/debug/_ext/1171490990/initialization.o
 .debug_loc     0x0000000000003f23       0xdc build/default/debug/_ext/1171490990/interrupts.o
 .debug_loc     0x0000000000003fff       0x40 build/default/debug/_ext/1171490990/exceptions.o
 .debug_loc     0x000000000000403f      0x122 build/default/debug/_ext/1171490990/freertos_hooks.o
 .debug_loc     0x0000000000004161      0x134 build/default/debug/_ext/1171490990/tasks.o
 .debug_loc     0x0000000000004295      0x383 build/default/debug/_ext/1360937237/GNSStasks.o
 .debug_loc     0x0000000000004618       0xe2 build/default/debug/_ext/1665200909/heap_1.o
 .debug_loc     0x00000000000046fa      0x2d5 build/default/debug/_ext/951553261/port.o
 .debug_loc     0x00000000000049cf       0x61 build/default/debug/_ext/404212886/list.o
 .debug_loc     0x0000000000004a30     0x22b0 build/default/debug/_ext/404212886/queue.o
 .debug_loc     0x0000000000006ce0     0x2e67 build/default/debug/_ext/404212886/FreeRTOS_tasks.o
 .debug_loc     0x0000000000009b47      0xeec build/default/debug/_ext/404212886/event_groups.o
 .debug_loc     0x000000000000aa33     0x232e build/default/debug/_ext/404212886/stream_buffer.o
 .debug_loc     0x000000000000cd61       0x20 build/default/debug/_ext/1360937237/main_pic32mk.o
 .debug_loc     0x000000000000cd81      0xb5b c:/program files/microchip/xc32/v4.00/bin/bin/../../lib/gcc/pic32mx/8.3.1/fpu64\libgcc.a(_udivdi3.o)

.debug_macinfo
 *.elf(.debug_macinfo)
 *(.debug_macinfo)

.debug_weaknames
 *.elf(.debug_weaknames)
 *(.debug_weaknames)

.debug_funcnames
 *.elf(.debug_funcnames)
 *(.debug_funcnames)

.debug_typenames
 *.elf(.debug_typenames)
 *(.debug_typenames)

.debug_varnames
 *.elf(.debug_varnames)
 *(.debug_varnames)

.debug_pubtypes
 *.elf(.debug_pubtypes)
 *(.debug_pubtypes)

.debug_ranges   0x0000000000000000      0xe38
 *.elf(.debug_ranges)
 *(.debug_ranges)
 .debug_ranges  0x0000000000000000       0x10 c:/program files/microchip/xc32/v4.00/bin/bin/../../lib/gcc/pic32mx/8.3.1/../../../../pic32mx/lib/fpu64\software-debug-break.o
 .debug_ranges  0x0000000000000010       0x80 build/default/debug/_ext/1529399856/osal_freertos.o
 .debug_ranges  0x0000000000000090       0x70 build/default/debug/_ext/1984168316/plib_canfd1.o
 .debug_ranges  0x0000000000000100       0x10 build/default/debug/_ext/60165520/plib_clk.o
 .debug_ranges  0x0000000000000110       0x78 build/default/debug/_ext/1865161661/plib_dmac.o
 .debug_ranges  0x0000000000000188       0x58 build/default/debug/_ext/1865200349/plib_evic.o
 .debug_ranges  0x00000000000001e0       0x50 build/default/debug/_ext/1865254177/plib_gpio.o
 .debug_ranges  0x0000000000000230       0x60 build/default/debug/_ext/60181895/plib_tmr2.o
 .debug_ranges  0x0000000000000290       0x98 build/default/debug/_ext/1865657120/plib_uart1.o
 .debug_ranges  0x0000000000000328       0x18 build/default/debug/_ext/163028504/xc32_monitor.o
 .debug_ranges  0x0000000000000340       0x30 build/default/debug/_ext/1881668453/sys_int.o
 .debug_ranges  0x0000000000000370      0x150 build/default/debug/_ext/101884895/sys_time.o
 .debug_ranges  0x00000000000004c0       0x10 build/default/debug/_ext/1171490990/initialization.o
 .debug_ranges  0x00000000000004d0       0x48 build/default/debug/_ext/1171490990/interrupts.o
 .debug_ranges  0x0000000000000518       0x18 build/default/debug/_ext/1171490990/exceptions.o
 .debug_ranges  0x0000000000000530       0x50 build/default/debug/_ext/1171490990/interrupts_a.o
 .debug_ranges  0x0000000000000580       0x30 build/default/debug/_ext/1171490990/freertos_hooks.o
 .debug_ranges  0x00000000000005b0       0x30 build/default/debug/_ext/1171490990/tasks.o
 .debug_ranges  0x00000000000005e0       0x68 build/default/debug/_ext/1360937237/GNSStasks.o
 .debug_ranges  0x0000000000000648       0x28 build/default/debug/_ext/1665200909/heap_1.o
 .debug_ranges  0x0000000000000670       0x48 build/default/debug/_ext/951553261/port.o
 .debug_ranges  0x00000000000006b8       0x28 build/default/debug/_ext/951553261/port_asm.o
 .debug_ranges  0x00000000000006e0       0x30 build/default/debug/_ext/404212886/list.o
 .debug_ranges  0x0000000000000710      0x1c8 build/default/debug/_ext/404212886/queue.o
 .debug_ranges  0x00000000000008d8      0x250 build/default/debug/_ext/404212886/FreeRTOS_tasks.o
 .debug_ranges  0x0000000000000b28       0xa0 build/default/debug/_ext/404212886/event_groups.o
 .debug_ranges  0x0000000000000bc8      0x128 build/default/debug/_ext/404212886/stream_buffer.o
 .debug_ranges  0x0000000000000cf0       0x10 build/default/debug/_ext/1360937237/main_pic32mk.o
 .debug_ranges  0x0000000000000d00       0x38 C:\Users\rkucb\AppData\Local\Temp\ccMUkNN3.o
 .debug_ranges  0x0000000000000d38       0xd0 c:/program files/microchip/xc32/v4.00/bin/bin/../../lib/gcc/pic32mx/8.3.1/fpu64\libgcc.a(_udivdi3.o)
 .debug_ranges  0x0000000000000e08       0x10 c:/program files/microchip/xc32/v4.00/bin/bin/../../lib/gcc/pic32mx/8.3.1/../../../../pic32mx/lib/fpu64\libpic32.a(default-on-reset.o)
 .debug_ranges  0x0000000000000e18       0x10 c:/program files/microchip/xc32/v4.00/bin/bin/../../lib/gcc/pic32mx/8.3.1/../../../../pic32mx/lib/fpu64\libpic32.a(default-on-bootstrap.o)
 .debug_ranges  0x0000000000000e28       0x10 c:/program files/microchip/xc32/v4.00/bin/bin/../../lib/gcc/pic32mx/8.3.1/../../../../pic32mx/lib/fpu64\libpic32.a(defaultinterrupt.o)

.gnu.attributes
                0x0000000000000000       0x10
 *(.gnu.attributes)
 .gnu.attributes
                0x0000000000000000       0x10 c:/program files/microchip/xc32/v4.00/bin/bin/../../lib/gcc/pic32mx/8.3.1/../../../../pic32mx/lib/fpu64\software-debug-break.o
 .gnu.attributes
                0x0000000000000010       0x10 build/default/debug/_ext/1529399856/osal_freertos.o
 .gnu.attributes
                0x0000000000000020       0x10 build/default/debug/_ext/1984168316/plib_canfd1.o
 .gnu.attributes
                0x0000000000000030       0x10 build/default/debug/_ext/60165520/plib_clk.o
 .gnu.attributes
                0x0000000000000040       0x10 build/default/debug/_ext/1865161661/plib_dmac.o
 .gnu.attributes
                0x0000000000000050       0x10 build/default/debug/_ext/1865200349/plib_evic.o
 .gnu.attributes
                0x0000000000000060       0x10 build/default/debug/_ext/1865254177/plib_gpio.o
 .gnu.attributes
                0x0000000000000070       0x10 build/default/debug/_ext/60181895/plib_tmr2.o
 .gnu.attributes
                0x0000000000000080       0x10 build/default/debug/_ext/1865657120/plib_uart1.o
 .gnu.attributes
                0x0000000000000090       0x10 build/default/debug/_ext/163028504/xc32_monitor.o
 .gnu.attributes
                0x00000000000000a0       0x10 build/default/debug/_ext/1881668453/sys_int.o
 .gnu.attributes
                0x00000000000000b0       0x10 build/default/debug/_ext/101884895/sys_time.o
 .gnu.attributes
                0x00000000000000c0       0x10 build/default/debug/_ext/1171490990/initialization.o
 .gnu.attributes
                0x00000000000000d0       0x10 build/default/debug/_ext/1171490990/interrupts.o
 .gnu.attributes
                0x00000000000000e0       0x10 build/default/debug/_ext/1171490990/exceptions.o
 .gnu.attributes
                0x00000000000000f0       0x10 build/default/debug/_ext/1171490990/interrupts_a.o
 .gnu.attributes
                0x0000000000000100       0x10 build/default/debug/_ext/1171490990/freertos_hooks.o
 .gnu.attributes
                0x0000000000000110       0x10 build/default/debug/_ext/1171490990/tasks.o
 .gnu.attributes
                0x0000000000000120       0x10 build/default/debug/_ext/1360937237/GNSStasks.o
 .gnu.attributes
                0x0000000000000130       0x10 build/default/debug/_ext/1665200909/heap_1.o
 .gnu.attributes
                0x0000000000000140       0x10 build/default/debug/_ext/951553261/port.o
 .gnu.attributes
                0x0000000000000150       0x10 build/default/debug/_ext/951553261/port_asm.o
 .gnu.attributes
                0x0000000000000160       0x10 build/default/debug/_ext/404212886/croutine.o
 .gnu.attributes
                0x0000000000000170       0x10 build/default/debug/_ext/404212886/list.o
 .gnu.attributes
                0x0000000000000180       0x10 build/default/debug/_ext/404212886/queue.o
 .gnu.attributes
                0x0000000000000190       0x10 build/default/debug/_ext/404212886/FreeRTOS_tasks.o
 .gnu.attributes
                0x00000000000001a0       0x10 build/default/debug/_ext/404212886/timers.o
 .gnu.attributes
                0x00000000000001b0       0x10 build/default/debug/_ext/404212886/event_groups.o
 .gnu.attributes
                0x00000000000001c0       0x10 build/default/debug/_ext/404212886/stream_buffer.o
 .gnu.attributes
                0x00000000000001d0       0x10 build/default/debug/_ext/1360937237/main_pic32mk.o
 .gnu.attributes
                0x00000000000001e0       0x10 C:\Users\rkucb\AppData\Local\Temp\ccMUkNN3.o
 .gnu.attributes
                0x00000000000001f0       0x10 C:\Users\rkucb\AppData\Local\Temp\cci6bx1n.o
 .gnu.attributes
                0x0000000000000200       0x10 C:\Users\rkucb\AppData\Local\Temp\ccE6xSL3.o
 .gnu.attributes
                0x0000000000000210       0x10 C:\Users\rkucb\AppData\Local\Temp\ccaM0Zr1.o
 .gnu.attributes
                0x0000000000000220       0x10 c:/program files/microchip/xc32/v4.00/bin/bin/../../lib/gcc/pic32mx/8.3.1/../../../../pic32mx/lib/fpu64\pic32_software_reset.o
 .gnu.attributes
                0x0000000000000230       0x10 c:/program files/microchip/xc32/v4.00/bin/bin/../../lib/gcc/pic32mx/8.3.1/fpu64\libgcc.a(_udivdi3.o)
 .gnu.attributes
                0x0000000000000240       0x10 c:/program files/microchip/xc32/v4.00/bin/bin/../../lib/gcc/pic32mx/8.3.1/../../../../pic32mx/lib/fpu64\libpic32.a(memcpy.o)
 .gnu.attributes
                0x0000000000000250       0x10 c:/program files/microchip/xc32/v4.00/bin/bin/../../lib/gcc/pic32mx/8.3.1/../../../../pic32mx/lib/fpu64\libpic32.a(memset.o)
 .gnu.attributes
                0x0000000000000260       0x10 c:/program files/microchip/xc32/v4.00/bin/bin/../../lib/gcc/pic32mx/8.3.1/../../../../pic32mx/lib/fpu64\libpic32.a(default-on-reset.o)
 .gnu.attributes
                0x0000000000000270       0x10 c:/program files/microchip/xc32/v4.00/bin/bin/../../lib/gcc/pic32mx/8.3.1/../../../../pic32mx/lib/fpu64\libpic32.a(default-on-bootstrap.o)
 .gnu.attributes
                0x0000000000000280       0x10 c:/program files/microchip/xc32/v4.00/bin/bin/../../lib/gcc/pic32mx/8.3.1/../../../../pic32mx/lib/fpu64\libpic32.a(default-nmi-handler.o)
 .gnu.attributes
                0x0000000000000290       0x10 c:/program files/microchip/xc32/v4.00/bin/bin/../../lib/gcc/pic32mx/8.3.1/../../../../pic32mx/lib/fpu64\libpic32.a(pic32_data_init.o)
 .gnu.attributes
                0x00000000000002a0       0x10 c:/program files/microchip/xc32/v4.00/bin/bin/../../lib/gcc/pic32mx/8.3.1/../../../../pic32mx/lib/fpu64\libpic32.a(general-exception.o)
 .gnu.attributes
                0x00000000000002b0       0x10 c:/program files/microchip/xc32/v4.00/bin/bin/../../lib/gcc/pic32mx/8.3.1/../../../../pic32mx/lib/fpu64\libpic32.a(defaultinterrupt.o)
                0x0000000000000001                __MPLAB_DEBUG = 0x1
                0x0000000000000001                __DEBUG = 0x1
                0x0000000000000200                _min_heap_size = 0x200
LOAD C:\Users\rkucb\AppData\Local\Temp\ccMUkNN3.o
LOAD C:\Users\rkucb\AppData\Local\Temp\cci6bx1n.o
LOAD C:\Users\rkucb\AppData\Local\Temp\ccE6xSL3.o
LOAD C:\Users\rkucb\AppData\Local\Temp\ccaM0Zr1.o
LOAD c:/program files/microchip/xc32/v4.00/bin/bin/../../lib/gcc/pic32mx/8.3.1/../../../../pic32mx/lib/fpu64\pic32_software_reset.o
LOAD c:/program files/microchip/xc32/v4.00/bin/bin/../../lib/gcc/pic32mx/8.3.1/fpu64\libgcc.a
START GROUP
LOAD c:/program files/microchip/xc32/v4.00/bin/bin/../../lib/gcc/pic32mx/8.3.1/../../../../pic32mx/lib/fpu64\libpic32.a
LOAD c:/program files/microchip/xc32/v4.00/bin/bin/../../lib/gcc/pic32mx/8.3.1/../../../../pic32mx/lib/fpu64\libdebug.a
LOAD c:/program files/microchip/xc32/v4.00/bin/bin/../../lib/gcc/pic32mx/8.3.1/../../../../pic32mx/lib/fpu64\libc-musl.a
LOAD c:/program files/microchip/xc32/v4.00/bin/bin/../../lib/gcc/pic32mx/8.3.1/../../../../pic32mx/lib/fpu64\libm-musl.a
LOAD c:/program files/microchip/xc32/v4.00/bin/bin/../../lib/gcc/pic32mx/8.3.1/../../../../pic32mx/lib/fpu64\libdspr2.a
LOAD c:/program files/microchip/xc32/v4.00/bin/bin/../../lib/gcc/pic32mx/8.3.1/../../../../pic32mx/lib/fpu64\libdsp.a
END GROUP
LOAD c:/program files/microchip/xc32/v4.00/bin/bin/../../lib/gcc/pic32mx/8.3.1/fpu64\libgcc.a
OUTPUT(dist/default/debug/GNSS-CAN.X.debug.elf elf32-tradlittlemips)
LOAD stack
LOAD data_init

.reginfo        0x0000000000000000       0x18
 .reginfo       0x0000000000000000       0x18 c:/program files/microchip/xc32/v4.00/bin/bin/../../lib/gcc/pic32mx/8.3.1/../../../../pic32mx/lib/fpu64\software-debug-break.o

.stack          0x00000000800080b0      0x400
 .stack         0x00000000800080b0      0x400 stack

.__vector_offset_BF8105B8_data
                0x00000000bf8105b8       0xfc
 .__vector_offset_BF8105B8_data
                0x00000000bf8105b8       0xfc C:\Users\rkucb\AppData\Local\Temp\ccE6xSL3.o

.__vector_offset_BF8106B8_data
                0x00000000bf8106b8       0xa0
 .__vector_offset_BF8106B8_data
                0x00000000bf8106b8       0xa0 C:\Users\rkucb\AppData\Local\Temp\ccE6xSL3.o

.__vector_offset_BF810848_data
                0x00000000bf810848       0x94
 .__vector_offset_BF810848_data
                0x00000000bf810848       0x94 C:\Users\rkucb\AppData\Local\Temp\ccE6xSL3.o

.__vector_offset_BF8107D0_data
                0x00000000bf8107d0       0x74
 .__vector_offset_BF8107D0_data
                0x00000000bf8107d0       0x74 C:\Users\rkucb\AppData\Local\Temp\ccE6xSL3.o

.__vector_offset_BF810540_data
                0x00000000bf810540       0x70
 .__vector_offset_BF810540_data
                0x00000000bf810540       0x70 C:\Users\rkucb\AppData\Local\Temp\ccE6xSL3.o

.__vector_offset_BF81079C_data
                0x00000000bf81079c       0x30
 .__vector_offset_BF81079C_data
                0x00000000bf81079c       0x30 C:\Users\rkucb\AppData\Local\Temp\ccE6xSL3.o

.__vector_offset_BF8108F8_data
                0x00000000bf8108f8       0x28
 .__vector_offset_BF8108F8_data
                0x00000000bf8108f8       0x28 C:\Users\rkucb\AppData\Local\Temp\ccE6xSL3.o

.__vector_offset_BF81076C_data
                0x00000000bf81076c       0x24
 .__vector_offset_BF81076C_data
                0x00000000bf81076c       0x24 C:\Users\rkucb\AppData\Local\Temp\ccE6xSL3.o

.__vector_offset_BF810938_data
                0x00000000bf810938        0x8
 .__vector_offset_BF810938_data
                0x00000000bf810938        0x8 C:\Users\rkucb\AppData\Local\Temp\ccE6xSL3.o

.COHERENTBSS$   0x00000000a00003f0      0x208
 .COHERENTBSS$  0x00000000a00003f0      0x200 build/default/debug/_ext/1984168316/plib_canfd1.o
 .bss.readByte  0x00000000a00005f0        0x8 build/default/debug/_ext/1360937237/GNSStasks.o

.bss            0x0000000080000600     0x7560
 .bss           0x0000000080000600     0x6d60 build/default/debug/_ext/1665200909/heap_1.o
 .bss           0x0000000080007360      0x800 build/default/debug/_ext/951553261/port.o
                0x0000000080007360                xISRStack

.bss            0x0000000080007b60      0x1a4
 .bss           0x0000000080007b60       0xdc build/default/debug/_ext/101884895/sys_time.o
 .bss           0x0000000080007c3c       0xc8 build/default/debug/_ext/1360937237/GNSStasks.o
                0x0000000080007c3c                PDU_cov
                0x0000000080007c58                PDU_pvt
                0x0000000080007c84                PDU_sol
                0x0000000080007ca0                UBX_BUF

.bss            0x0000000080007d04      0x15c
 .bss           0x0000000080007d04       0xc8 build/default/debug/_ext/404212886/FreeRTOS_tasks.o
                0x0000000080007d04                xSuspendedTaskList
                0x0000000080007d18                xTasksWaitingTermination
                0x0000000080007d2c                xPendingReadyList
                0x0000000080007d40                xDelayedTaskList2
                0x0000000080007d54                xDelayedTaskList1
                0x0000000080007d68                pxReadyTasksLists
 .bss           0x0000000080007dcc       0x94 build/default/debug/_ext/1865161661/plib_dmac.o

.bss            0x0000000080007e60       0x34
 .bss           0x0000000080007e60       0x34 build/default/debug/_ext/1865657120/plib_uart1.o
                0x0000000080007e60                uart1Obj

.dinit          0x000000009d00186c      0x500
 .dinit         0x000000009d00186c      0x500 data_init

.text.vTaskSendUBXmessage
                0x000000009d001d6c      0x378
 .text.vTaskSendUBXmessage
                0x000000009d001d6c      0x378 build/default/debug/_ext/1360937237/GNSStasks.o
                0x000000009d001d6c                vTaskSendUBXmessage

.text.PackPDU   0x000000009d0020e4      0x358
 .text.PackPDU  0x000000009d0020e4      0x358 build/default/debug/_ext/1360937237/GNSStasks.o
                0x000000009d0020e4                PackPDU

.text.xQueueSemaphoreTake
                0x000000009d00243c      0x2d4
 .text.xQueueSemaphoreTake
                0x000000009d00243c      0x2d4 build/default/debug/_ext/404212886/queue.o
                0x000000009d00243c                xQueueSemaphoreTake

.text.xQueueGenericSend
                0x000000009d002710      0x29c
 .text.xQueueGenericSend
                0x000000009d002710      0x29c build/default/debug/_ext/404212886/queue.o
                0x000000009d002710                xQueueGenericSend

.text.xQueueReceive
                0x000000009d0029ac      0x240
 .text.xQueueReceive
                0x000000009d0029ac      0x240 build/default/debug/_ext/404212886/queue.o
                0x000000009d0029ac                xQueueReceive

.text.SYS_TIME_PLIBCallback
                0x000000009d002bec      0x1e0
 .text.SYS_TIME_PLIBCallback
                0x000000009d002bec      0x1e0 build/default/debug/_ext/101884895/sys_time.o

.text.xTaskIncrementTick
                0x000000009d002dcc      0x1c4
 .text.xTaskIncrementTick
                0x000000009d002dcc      0x1c4 build/default/debug/_ext/404212886/FreeRTOS_tasks.o
                0x000000009d002dcc                xTaskIncrementTick

.text.xTaskResumeAll
                0x000000009d002f90      0x198
 .text.xTaskResumeAll
                0x000000009d002f90      0x198 build/default/debug/_ext/404212886/FreeRTOS_tasks.o
                0x000000009d002f90                xTaskResumeAll

.text           0x000000009d000000      0x168
 .text          0x000000009d000000      0x168 c:/program files/microchip/xc32/v4.00/bin/bin/../../lib/gcc/pic32mx/8.3.1/../../../../pic32mx/lib/fpu64\libpic32.a(memcpy.o)
                0x000000009d000000                memcpy

.text.vTaskSwitchContext
                0x000000009d003128      0x160
 .text.vTaskSwitchContext
                0x000000009d003128      0x160 build/default/debug/_ext/404212886/FreeRTOS_tasks.o
                0x000000009d003128                vTaskSwitchContext

.text.vTaskPriorityDisinheritAfterTimeout
                0x000000009d003288      0x154
 .text.vTaskPriorityDisinheritAfterTimeout
                0x000000009d003288      0x154 build/default/debug/_ext/404212886/FreeRTOS_tasks.o
                0x000000009d003288                vTaskPriorityDisinheritAfterTimeout

.text.vTaskNotifyGiveFromISR
                0x000000009d0033dc      0x14c
 .text.vTaskNotifyGiveFromISR
                0x000000009d0033dc      0x14c build/default/debug/_ext/404212886/FreeRTOS_tasks.o
                0x000000009d0033dc                vTaskNotifyGiveFromISR

.text.DMA1_InterruptHandler
                0x000000009d003528      0x140
 .text.DMA1_InterruptHandler
                0x000000009d003528      0x140 build/default/debug/_ext/1865161661/plib_dmac.o
                0x000000009d003528                DMA1_InterruptHandler

.text.xTaskPriorityDisinherit
                0x000000009d003668      0x13c
 .text.xTaskPriorityDisinherit
                0x000000009d003668      0x13c build/default/debug/_ext/404212886/FreeRTOS_tasks.o
                0x000000009d003668                xTaskPriorityDisinherit

.text.prvInitialiseNewTask
                0x000000009d0037a4      0x12c
 .text.prvInitialiseNewTask
                0x000000009d0037a4      0x12c build/default/debug/_ext/404212886/FreeRTOS_tasks.o
                0x000000009d0037a4                prvInitialiseNewTask

.text.xTaskPriorityInherit
                0x000000009d0038d0      0x12c
 .text.xTaskPriorityInherit
                0x000000009d0038d0      0x12c build/default/debug/_ext/404212886/FreeRTOS_tasks.o
                0x000000009d0038d0                xTaskPriorityInherit

.text.GPIO_Initialize
                0x000000009d0039fc      0x118
 .text.GPIO_Initialize
                0x000000009d0039fc      0x118 build/default/debug/_ext/1865254177/plib_gpio.o
                0x000000009d0039fc                GPIO_Initialize

.text.prvAddNewTaskToReadyList
                0x000000009d003b14      0x10c
 .text.prvAddNewTaskToReadyList
                0x000000009d003b14      0x10c build/default/debug/_ext/404212886/FreeRTOS_tasks.o
                0x000000009d003b14                prvAddNewTaskToReadyList

.text.DMAC_ChannelSetAddresses
                0x000000009d003c20      0x104
 .text.DMAC_ChannelSetAddresses
                0x000000009d003c20      0x104 build/default/debug/_ext/1865161661/plib_dmac.o

.text.DMAC_ChannelTransfer
                0x000000009d003d24      0x104
 .text.DMAC_ChannelTransfer
                0x000000009d003d24      0x104 build/default/debug/_ext/1865161661/plib_dmac.o
                0x000000009d003d24                DMAC_ChannelTransfer

.text.SYS_Tasks
                0x000000009d003e28      0x104
 .text.SYS_Tasks
                0x000000009d003e28      0x104 build/default/debug/_ext/1171490990/tasks.o
                0x000000009d003e28                SYS_Tasks

.text           0x000000009d003f2c      0x104
 .text          0x000000009d003f2c      0x104 build/default/debug/_ext/951553261/port_asm.o
                0x000000009d003f2c                vPortStartFirstTask

.text.prvUnlockQueue
                0x000000009d004030      0x104
 .text.prvUnlockQueue
                0x000000009d004030      0x104 build/default/debug/_ext/404212886/queue.o

.text.UART1_TX_InterruptHandler
                0x000000009d004134      0x100
 .text.UART1_TX_InterruptHandler
                0x000000009d004134      0x100 build/default/debug/_ext/1865657120/plib_uart1.o
                0x000000009d004134                UART1_TX_InterruptHandler

.text.prvCopyDataToQueue
                0x000000009d004234       0xfc
 .text.prvCopyDataToQueue
                0x000000009d004234       0xfc build/default/debug/_ext/404212886/queue.o

.text.CAN1_MessageTransmit
                0x000000009d004330       0xf0
 .text.CAN1_MessageTransmit
                0x000000009d004330       0xf0 build/default/debug/_ext/1984168316/plib_canfd1.o
                0x000000009d004330                CAN1_MessageTransmit

.text.SYS_TIME_AddToList
                0x000000009d004420       0xe8
 .text.SYS_TIME_AddToList
                0x000000009d004420       0xe8 build/default/debug/_ext/101884895/sys_time.o

.text.xQueueGenericReset
                0x000000009d004508       0xe8
 .text.xQueueGenericReset
                0x000000009d004508       0xe8 build/default/debug/_ext/404212886/queue.o
                0x000000009d004508                xQueueGenericReset

.text.prvAddCurrentTaskToDelayedList
                0x000000009d0045f0       0xe8
 .text.prvAddCurrentTaskToDelayedList
                0x000000009d0045f0       0xe8 build/default/debug/_ext/404212886/FreeRTOS_tasks.o
                0x000000009d0045f0                prvAddCurrentTaskToDelayedList

.text.xTaskCheckForTimeOut
                0x000000009d0046d8       0xe4
 .text.xTaskCheckForTimeOut
                0x000000009d0046d8       0xe4 build/default/debug/_ext/404212886/FreeRTOS_tasks.o
                0x000000009d0046d8                xTaskCheckForTimeOut

.text.CAN1_Initialize
                0x000000009d0047bc       0xdc
 .text.CAN1_Initialize
                0x000000009d0047bc       0xdc build/default/debug/_ext/1984168316/plib_canfd1.o
                0x000000009d0047bc                CAN1_Initialize

.text.xTaskRemoveFromEventList
                0x000000009d004898       0xdc
 .text.xTaskRemoveFromEventList
                0x000000009d004898       0xdc build/default/debug/_ext/404212886/FreeRTOS_tasks.o
                0x000000009d004898                xTaskRemoveFromEventList

.text.general_exception
                0x000000009d004974       0xdc
 .text.general_exception
                0x000000009d004974       0xdc c:/program files/microchip/xc32/v4.00/bin/bin/../../lib/gcc/pic32mx/8.3.1/../../../../pic32mx/lib/fpu64\libpic32.a(general-exception.o)
                0x000000009d004974                _general_exception_context

.text.SYS_TIME_Initialize
                0x000000009d004a50       0xd0
 .text.SYS_TIME_Initialize
                0x000000009d004a50       0xd0 build/default/debug/_ext/101884895/sys_time.o
                0x000000009d004a50                SYS_TIME_Initialize

.text.ulTaskNotifyTake
                0x000000009d004b20       0xcc
 .text.ulTaskNotifyTake
                0x000000009d004b20       0xcc build/default/debug/_ext/404212886/FreeRTOS_tasks.o
                0x000000009d004b20                ulTaskNotifyTake

.text.CLK_Initialize
                0x000000009d004bec       0xc4
 .text.CLK_Initialize
                0x000000009d004bec       0xc4 build/default/debug/_ext/60165520/plib_clk.o
                0x000000009d004bec                CLK_Initialize

.text.xTaskCreate
                0x000000009d004cb0       0xc4
 .text.xTaskCreate
                0x000000009d004cb0       0xc4 build/default/debug/_ext/404212886/FreeRTOS_tasks.o
                0x000000009d004cb0                xTaskCreate

.text.pvPortMalloc
                0x000000009d004d74       0xb8
 .text.pvPortMalloc
                0x000000009d004d74       0xb8 build/default/debug/_ext/1665200909/heap_1.o
                0x000000009d004d74                pvPortMalloc

.text.SYS_Initialize
                0x000000009d004e2c       0xb4
 .text.SYS_Initialize
                0x000000009d004e2c       0xb4 build/default/debug/_ext/1171490990/initialization.o
                0x000000009d004e2c                SYS_Initialize

.text.vTaskProcessUBXmessage
                0x000000009d004ee0       0xac
 .text.vTaskProcessUBXmessage
                0x000000009d004ee0       0xac build/default/debug/_ext/1360937237/GNSStasks.o
                0x000000009d004ee0                vTaskProcessUBXmessage

.text.prvInitialiseTaskLists
                0x000000009d004f8c       0xac
 .text.prvInitialiseTaskLists
                0x000000009d004f8c       0xac build/default/debug/_ext/404212886/FreeRTOS_tasks.o
                0x000000009d004f8c                prvInitialiseTaskLists

.text           0x000000009d005038       0xa8
 .text          0x000000009d005038       0xa8 c:/program files/microchip/xc32/v4.00/bin/bin/../../lib/gcc/pic32mx/8.3.1/../../../../pic32mx/lib/fpu64\libpic32.a(memset.o)
                0x000000009d005038                memset

.text.vTaskStartScheduler
                0x000000009d0050e0       0xa0
 .text.vTaskStartScheduler
                0x000000009d0050e0       0xa0 build/default/debug/_ext/404212886/FreeRTOS_tasks.o
                0x000000009d0050e0                vTaskStartScheduler

.text.UBXframeFind
                0x000000009d005180       0x90
 .text.UBXframeFind
                0x000000009d005180       0x90 build/default/debug/_ext/1360937237/GNSStasks.o
                0x000000009d005180                UBXframeFind

.text.SYS_TIME_GetTimerObject
                0x000000009d005210       0x8c
 .text.SYS_TIME_GetTimerObject
                0x000000009d005210       0x8c build/default/debug/_ext/101884895/sys_time.o

.text.SYS_TIME_RemoveFromList
                0x000000009d00529c       0x8c
 .text.SYS_TIME_RemoveFromList
                0x000000009d00529c       0x8c build/default/debug/_ext/101884895/sys_time.o

.text.UBXframeProcess
                0x000000009d005328       0x8c
 .text.UBXframeProcess
                0x000000009d005328       0x8c build/default/debug/_ext/1360937237/GNSStasks.o
                0x000000009d005328                UBXframeProcess

.text.xQueueGenericCreate
                0x000000009d0053b4       0x8c
 .text.xQueueGenericCreate
                0x000000009d0053b4       0x8c build/default/debug/_ext/404212886/queue.o
                0x000000009d0053b4                xQueueGenericCreate

.text           0x000000009d005440       0x8c
 .text          0x000000009d005440       0x8c c:/program files/microchip/xc32/v4.00/bin/bin/../../lib/gcc/pic32mx/8.3.1/../../../../pic32mx/lib/fpu64\libpic32.a(pic32_data_init.o)
                0x000000009d005440                __pic32_data_init

.text.UART1_Initialize
                0x000000009d0054cc       0x88
 .text.UART1_Initialize
                0x000000009d0054cc       0x88 build/default/debug/_ext/1865657120/plib_uart1.o
                0x000000009d0054cc                UART1_Initialize

.text.DMAC_Initialize
                0x000000009d005554       0x80
 .text.DMAC_Initialize
                0x000000009d005554       0x80 build/default/debug/_ext/1865161661/plib_dmac.o
                0x000000009d005554                DMAC_Initialize

.text.prvCheckTasksWaitingTermination
                0x000000009d0055d4       0x80
 .text.prvCheckTasksWaitingTermination
                0x000000009d0055d4       0x80 build/default/debug/_ext/404212886/FreeRTOS_tasks.o
                0x000000009d0055d4                prvCheckTasksWaitingTermination

.text.SYS_TIME_TimerDestroy
                0x000000009d005654       0x7c
 .text.SYS_TIME_TimerDestroy
                0x000000009d005654       0x7c build/default/debug/_ext/101884895/sys_time.o
                0x000000009d005654                SYS_TIME_TimerDestroy

.text.vTaskEnterCritical
                0x000000009d0056d0       0x7c
 .text.vTaskEnterCritical
                0x000000009d0056d0       0x7c build/default/debug/_ext/404212886/FreeRTOS_tasks.o
                0x000000009d0056d0                vTaskEnterCritical

.text.vTaskDelay
                0x000000009d00574c       0x7c
 .text.vTaskDelay
                0x000000009d00574c       0x7c build/default/debug/_ext/404212886/FreeRTOS_tasks.o
                0x000000009d00574c                vTaskDelay

.text.UART1_ErrorClear
                0x000000009d0057c8       0x78
 .text.UART1_ErrorClear
                0x000000009d0057c8       0x78 build/default/debug/_ext/1865657120/plib_uart1.o

.text.vApplicationSetupTickTimerInterrupt
                0x000000009d000190       0x6c
 .text.vApplicationSetupTickTimerInterrupt
                0x000000009d000190       0x6c build/default/debug/_ext/951553261/port.o
                0x000000009d000190                vApplicationSetupTickTimerInterrupt

.text.UART1_FAULT_InterruptHandler
                0x000000009d005840       0x64
 .text.UART1_FAULT_InterruptHandler
                0x000000009d005840       0x64 build/default/debug/_ext/1865657120/plib_uart1.o
                0x000000009d005840                UART1_FAULT_InterruptHandler

.text.SYS_TIME_ResourceLock
                0x000000009d0058a4       0x60
 .text.SYS_TIME_ResourceLock
                0x000000009d0058a4       0x60 build/default/debug/_ext/101884895/sys_time.o

.text.pxPortInitialiseStack
                0x000000009d005904       0x60
 .text.pxPortInitialiseStack
                0x000000009d005904       0x60 build/default/debug/_ext/951553261/port.o
                0x000000009d005904                pxPortInitialiseStack

.text.vTaskExitCritical
                0x000000009d005964       0x60
 .text.vTaskExitCritical
                0x000000009d005964       0x60 build/default/debug/_ext/404212886/FreeRTOS_tasks.o
                0x000000009d005964                vTaskExitCritical

.text.EVIC_Initialize
                0x000000009d0059c4       0x5c
 .text.EVIC_Initialize
                0x000000009d0059c4       0x5c build/default/debug/_ext/1865200349/plib_evic.o
                0x000000009d0059c4                EVIC_Initialize

.text.vTaskGetUART1bytes
                0x000000009d005a20       0x5c
 .text.vTaskGetUART1bytes
                0x000000009d005a20       0x5c build/default/debug/_ext/1360937237/GNSStasks.o
                0x000000009d005a20                vTaskGetUART1bytes

.text.xPortStartScheduler
                0x000000009d005a7c       0x5c
 .text.xPortStartScheduler
                0x000000009d005a7c       0x5c build/default/debug/_ext/951553261/port.o
                0x000000009d005a7c                xPortStartScheduler

.text.SYS_INT_SourceDisable
                0x000000009d005ad8       0x58
 .text.SYS_INT_SourceDisable
                0x000000009d005ad8       0x58 build/default/debug/_ext/1881668453/sys_int.o
                0x000000009d005ad8                SYS_INT_SourceDisable

.text.vTaskGetUART1bytes_Init
                0x000000009d005b30       0x58
 .text.vTaskGetUART1bytes_Init
                0x000000009d005b30       0x58 build/default/debug/_ext/1360937237/GNSStasks.o
                0x000000009d005b30                vTaskGetUART1bytes_Init

.text.vListInsert
                0x000000009d005b88       0x58
 .text.vListInsert
                0x000000009d005b88       0x58 build/default/debug/_ext/404212886/list.o
                0x000000009d005b88                vListInsert

.text.prvCopyDataFromQueue
                0x000000009d005be0       0x58
 .text.prvCopyDataFromQueue
                0x000000009d005be0       0x58 build/default/debug/_ext/404212886/queue.o

.text.xQueueCreateMutex
                0x000000009d005c38       0x58
 .text.xQueueCreateMutex
                0x000000009d005c38       0x58 build/default/debug/_ext/404212886/queue.o
                0x000000009d005c38                xQueueCreateMutex

.text.vTaskPlaceOnEventList
                0x000000009d005c90       0x58
 .text.vTaskPlaceOnEventList
                0x000000009d005c90       0x58 build/default/debug/_ext/404212886/FreeRTOS_tasks.o
                0x000000009d005c90                vTaskPlaceOnEventList

.text.vPortIncrementTick
                0x000000009d005ce8       0x54
 .text.vPortIncrementTick
                0x000000009d005ce8       0x54 build/default/debug/_ext/951553261/port.o
                0x000000009d005ce8                vPortIncrementTick

.text.main_entry
                0x000000009d005d3c       0x54
 .text.main_entry
                0x000000009d005d3c       0x54 C:\Users\rkucb\AppData\Local\Temp\ccMUkNN3.o
                0x000000009d005d70                __crt0_exit

.text.vTaskSendUBXheartbeat
                0x000000009d005d90       0x50
 .text.vTaskSendUBXheartbeat
                0x000000009d005d90       0x50 build/default/debug/_ext/1360937237/GNSStasks.o
                0x000000009d005d90                vTaskSendUBXheartbeat

.text.prvTaskExitError
                0x000000009d005de0       0x4c
 .text.prvTaskExitError
                0x000000009d005de0       0x4c build/default/debug/_ext/951553261/port.o

.text.SYS_TIME_ResourceUnlock
                0x000000009d005e2c       0x48
 .text.SYS_TIME_ResourceUnlock
                0x000000009d005e2c       0x48 build/default/debug/_ext/101884895/sys_time.o

.rodata.str1.4  0x000000009d005e74       0x48
 .rodata.str1.4
                0x000000009d005e74       0x48 build/default/debug/_ext/1171490990/tasks.o

.text.uxListRemove
                0x000000009d005ebc       0x48
 .text.uxListRemove
                0x000000009d005ebc       0x48 build/default/debug/_ext/404212886/list.o
                0x000000009d005ebc                uxListRemove

.text.main      0x000000009d005f04       0x48
 .text.main     0x000000009d005f04       0x48 build/default/debug/_ext/1360937237/main_pic32mk.o
                0x000000009d005f04                main

.text.OSAL_MUTEX_Create
                0x000000009d005f4c       0x44
 .text.OSAL_MUTEX_Create
                0x000000009d005f4c       0x44 build/default/debug/_ext/1529399856/osal_freertos.o
                0x000000009d005f4c                OSAL_MUTEX_Create

.text.TMR2_Initialize
                0x000000009d005f90       0x44
 .text.TMR2_Initialize
                0x000000009d005f90       0x44 build/default/debug/_ext/60181895/plib_tmr2.o
                0x000000009d005f90                TMR2_Initialize

.text           0x000000009d005fd4       0x44
 .text          0x000000009d005fd4       0x44 c:/program files/microchip/xc32/v4.00/bin/bin/../../lib/gcc/pic32mx/8.3.1/../../../../pic32mx/lib/fpu64\pic32_software_reset.o
                0x000000009d005fd4                __pic32_software_reset

.text.TIMER_2_InterruptHandler
                0x000000009d006018       0x40
 .text.TIMER_2_InterruptHandler
                0x000000009d006018       0x40 build/default/debug/_ext/60181895/plib_tmr2.o
                0x000000009d006018                TIMER_2_InterruptHandler

.text.prvIdleTask
                0x000000009d006058       0x40
 .text.prvIdleTask
                0x000000009d006058       0x40 build/default/debug/_ext/404212886/FreeRTOS_tasks.o
                0x000000009d006058                prvIdleTask

.text.uxPortSetInterruptMaskFromISR
                0x000000009d006098       0x38
 .text.uxPortSetInterruptMaskFromISR
                0x000000009d006098       0x38 build/default/debug/_ext/951553261/port.o
                0x000000009d006098                uxPortSetInterruptMaskFromISR

.text.prvResetNextTaskUnblockTime
                0x000000009d0060d0       0x38
 .text.prvResetNextTaskUnblockTime
                0x000000009d0060d0       0x38 build/default/debug/_ext/404212886/FreeRTOS_tasks.o
                0x000000009d0060d0                prvResetNextTaskUnblockTime

.text.UARTDmaChannelHandler
                0x000000009d006108       0x34
 .text.UARTDmaChannelHandler
                0x000000009d006108       0x34 build/default/debug/_ext/1360937237/GNSStasks.o

.text.vPortFree
                0x000000009d00613c       0x34
 .text.vPortFree
                0x000000009d00613c       0x34 build/default/debug/_ext/1665200909/heap_1.o
                0x000000009d00613c                vPortFree

.text.prvIsQueueEmpty
                0x000000009d006170       0x34
 .text.prvIsQueueEmpty
                0x000000009d006170       0x34 build/default/debug/_ext/404212886/queue.o

.text.OSAL_MUTEX_Lock
                0x000000009d0061a4       0x30
 .text.OSAL_MUTEX_Lock
                0x000000009d0061a4       0x30 build/default/debug/_ext/1529399856/osal_freertos.o
                0x000000009d0061a4                OSAL_MUTEX_Lock

.text.OSAL_MUTEX_Unlock
                0x000000009d0061d4       0x30
 .text.OSAL_MUTEX_Unlock
                0x000000009d0061d4       0x30 build/default/debug/_ext/1529399856/osal_freertos.o
                0x000000009d0061d4                OSAL_MUTEX_Unlock

.text.vListInsertEnd
                0x000000009d006204       0x30
 .text.vListInsertEnd
                0x000000009d006204       0x30 build/default/debug/_ext/404212886/list.o
                0x000000009d006204                vListInsertEnd

.text.prvDeleteTCB
                0x000000009d006234       0x30
 .text.prvDeleteTCB
                0x000000009d006234       0x30 build/default/debug/_ext/404212886/FreeRTOS_tasks.o
                0x000000009d006234                prvDeleteTCB

.text.EVIC_SourceEnable
                0x000000009d006264       0x28
 .text.EVIC_SourceEnable
                0x000000009d006264       0x28 build/default/debug/_ext/1865200349/plib_evic.o
                0x000000009d006264                EVIC_SourceEnable

.text.EVIC_SourceDisable
                0x000000009d00628c       0x28
 .text.EVIC_SourceDisable
                0x000000009d00628c       0x28 build/default/debug/_ext/1865200349/plib_evic.o
                0x000000009d00628c                EVIC_SourceDisable

.text.EVIC_INT_Restore
                0x000000009d0062b4       0x28
 .text.EVIC_INT_Restore
                0x000000009d0062b4       0x28 build/default/debug/_ext/1865200349/plib_evic.o
                0x000000009d0062b4                EVIC_INT_Restore

.text.pvTaskIncrementMutexHeldCount
                0x000000009d0062dc       0x28
 .text.pvTaskIncrementMutexHeldCount
                0x000000009d0062dc       0x28 build/default/debug/_ext/404212886/FreeRTOS_tasks.o
                0x000000009d0062dc                pvTaskIncrementMutexHeldCount

.text.vApplicationStackOverflowHook
                0x000000009d006304       0x24
 .text.vApplicationStackOverflowHook
                0x000000009d006304       0x24 build/default/debug/_ext/1171490990/freertos_hooks.o
                0x000000009d006304                vApplicationStackOverflowHook

.text.vApplicationMallocFailedHook
                0x000000009d006328       0x24
 .text.vApplicationMallocFailedHook
                0x000000009d006328       0x24 build/default/debug/_ext/1171490990/freertos_hooks.o
                0x000000009d006328                vApplicationMallocFailedHook

.text.vListInitialise
                0x000000009d00634c       0x24
 .text.vListInitialise
                0x000000009d00634c       0x24 build/default/debug/_ext/404212886/list.o
                0x000000009d00634c                vListInitialise

.text.EVIC_SourceIsEnabled
                0x000000009d006370       0x20
 .text.EVIC_SourceIsEnabled
                0x000000009d006370       0x20 build/default/debug/_ext/1865200349/plib_evic.o
                0x000000009d006370                EVIC_SourceIsEnabled

.text.UART1_RX_InterruptHandler
                0x000000009d006390       0x20
 .text.UART1_RX_InterruptHandler
                0x000000009d006390       0x20 build/default/debug/_ext/1865657120/plib_uart1.o
                0x000000009d006390                UART1_RX_InterruptHandler

.text.DMAC_ChannelCallbackRegister
                0x000000009d0063b0       0x1c
 .text.DMAC_ChannelCallbackRegister
                0x000000009d0063b0       0x1c build/default/debug/_ext/1865161661/plib_dmac.o
                0x000000009d0063b0                DMAC_ChannelCallbackRegister

.rodata         0x000000009d0063cc       0x1c
 .rodata        0x000000009d0063cc       0x1c build/default/debug/_ext/1171490990/initialization.o
                0x000000009d0063cc                sysTimeInitData
                0x000000009d0063d4                sysTimePlibAPI

.text.TIMER_2_Handler
                0x000000009d0063e8       0x1c
 .text.TIMER_2_Handler
                0x000000009d0063e8       0x1c build/default/debug/_ext/1171490990/interrupts.o
                0x000000009d0063e8                TIMER_2_Handler

.text.UART1_FAULT_Handler
                0x000000009d006404       0x1c
 .text.UART1_FAULT_Handler
                0x000000009d006404       0x1c build/default/debug/_ext/1171490990/interrupts.o
                0x000000009d006404                UART1_FAULT_Handler

.text.UART1_RX_Handler
                0x000000009d006420       0x1c
 .text.UART1_RX_Handler
                0x000000009d006420       0x1c build/default/debug/_ext/1171490990/interrupts.o
                0x000000009d006420                UART1_RX_Handler

.text.UART1_TX_Handler
                0x000000009d00643c       0x1c
 .text.UART1_TX_Handler
                0x000000009d00643c       0x1c build/default/debug/_ext/1171490990/interrupts.o
                0x000000009d00643c                UART1_TX_Handler

.text.DMA1_Handler
                0x000000009d006458       0x1c
 .text.DMA1_Handler
                0x000000009d006458       0x1c build/default/debug/_ext/1171490990/interrupts.o
                0x000000009d006458                DMA1_Handler

.text._general_exception_handler
                0x000000009d006474       0x1c
 .text._general_exception_handler
                0x000000009d006474       0x1c build/default/debug/_ext/1171490990/exceptions.o
                0x000000009d006474                _general_exception_handler

.text._bootstrap_exception_handler
                0x000000009d006490       0x1c
 .text._bootstrap_exception_handler
                0x000000009d006490       0x1c build/default/debug/_ext/1171490990/exceptions.o
                0x000000009d006490                _bootstrap_exception_handler

.text.vPortClearInterruptMaskFromISR
                0x000000009d0064ac       0x1c
 .text.vPortClearInterruptMaskFromISR
                0x000000009d0064ac       0x1c build/default/debug/_ext/951553261/port.o
                0x000000009d0064ac                vPortClearInterruptMaskFromISR

.MIPS.abiflags  0x000000009d000168       0x18
 .MIPS.abiflags
                0x000000009d000168       0x18 c:/program files/microchip/xc32/v4.00/bin/bin/../../lib/gcc/pic32mx/8.3.1/../../../../pic32mx/lib/fpu64\software-debug-break.o

.text.lvTaskSendUBXheartbeat
                0x000000009d0064c8       0x18
 .text.lvTaskSendUBXheartbeat
                0x000000009d0064c8       0x18 build/default/debug/_ext/1171490990/tasks.o

.text.lvTaskSendUBXmessage
                0x000000009d0064e0       0x18
 .text.lvTaskSendUBXmessage
                0x000000009d0064e0       0x18 build/default/debug/_ext/1171490990/tasks.o

.text.lvTaskProcessUBXmessage
                0x000000009d0064f8       0x18
 .text.lvTaskProcessUBXmessage
                0x000000009d0064f8       0x18 build/default/debug/_ext/1171490990/tasks.o

.text.lvTaskGetUART1bytes
                0x000000009d006510       0x18
 .text.lvTaskGetUART1bytes
                0x000000009d006510       0x18 build/default/debug/_ext/1171490990/tasks.o

.text           0x000000009d006528       0x18
 .text          0x000000009d006528       0x18 c:/program files/microchip/xc32/v4.00/bin/bin/../../lib/gcc/pic32mx/8.3.1/../../../../pic32mx/lib/fpu64\libpic32.a(default-nmi-handler.o)
                0x000000009d006528                _nmi_handler

.text.TMR2_Start
                0x000000009d006540       0x14
 .text.TMR2_Start
                0x000000009d006540       0x14 build/default/debug/_ext/60181895/plib_tmr2.o
                0x000000009d006540                TMR2_Start

.text.TMR2_Stop
                0x000000009d006554       0x14
 .text.TMR2_Stop
                0x000000009d006554       0x14 build/default/debug/_ext/60181895/plib_tmr2.o
                0x000000009d006554                TMR2_Stop

.text.vTaskSuspendAll
                0x000000009d006568       0x14
 .text.vTaskSuspendAll
                0x000000009d006568       0x14 build/default/debug/_ext/404212886/FreeRTOS_tasks.o
                0x000000009d006568                vTaskSuspendAll

.text.vTaskInternalSetTimeOutState
                0x000000009d00657c       0x14
 .text.vTaskInternalSetTimeOutState
                0x000000009d00657c       0x14 build/default/debug/_ext/404212886/FreeRTOS_tasks.o
                0x000000009d00657c                vTaskInternalSetTimeOutState

.text.TMR2_PeriodSet
                0x000000009d006590       0x10
 .text.TMR2_PeriodSet
                0x000000009d006590       0x10 build/default/debug/_ext/60181895/plib_tmr2.o
                0x000000009d006590                TMR2_PeriodSet

.text.TMR2_CallbackRegister
                0x000000009d0065a0       0x10
 .text.TMR2_CallbackRegister
                0x000000009d0065a0       0x10 build/default/debug/_ext/60181895/plib_tmr2.o
                0x000000009d0065a0                TMR2_CallbackRegister

.text.vTaskMissedYield
                0x000000009d0065b0       0x10
 .text.vTaskMissedYield
                0x000000009d0065b0       0x10 build/default/debug/_ext/404212886/FreeRTOS_tasks.o
                0x000000009d0065b0                vTaskMissedYield

.text.__exception_handler_break
                0x000000009d0065c0        0xc
 .text.__exception_handler_break
                0x000000009d0065c0        0xc c:/program files/microchip/xc32/v4.00/bin/bin/../../lib/gcc/pic32mx/8.3.1/../../../../pic32mx/lib/fpu64\software-debug-break.o
                0x000000009d0065c0                __exception_handler_break

.text.TMR2_FrequencyGet
                0x000000009d0065cc        0xc
 .text.TMR2_FrequencyGet
                0x000000009d0065cc        0xc build/default/debug/_ext/60181895/plib_tmr2.o
                0x000000009d0065cc                TMR2_FrequencyGet

.text.UART3_FAULT_Handler
                0x000000009d0065d8        0x8
 .text.UART3_FAULT_Handler
                0x000000009d0065d8        0x8 build/default/debug/_ext/1171490990/interrupts.o
                0x000000009d0065d8                UART3_FAULT_Handler

.text.UART3_RX_Handler
                0x000000009d0065e0        0x8
 .text.UART3_RX_Handler
                0x000000009d0065e0        0x8 build/default/debug/_ext/1171490990/interrupts.o
                0x000000009d0065e0                UART3_RX_Handler

.text.UART3_TX_Handler
                0x000000009d0065e8        0x8
 .text.UART3_TX_Handler
                0x000000009d0065e8        0x8 build/default/debug/_ext/1171490990/interrupts.o
                0x000000009d0065e8                UART3_TX_Handler

.rodata         0x000000009d0065f0        0x8
 .rodata        0x000000009d0065f0        0x8 build/default/debug/_ext/1360937237/GNSStasks.o

.text.vTaskProcessUBXmessage_Init
                0x000000009d0065f8        0x8
 .text.vTaskProcessUBXmessage_Init
                0x000000009d0065f8        0x8 build/default/debug/_ext/1360937237/GNSStasks.o
                0x000000009d0065f8                vTaskProcessUBXmessage_Init

.text.vTaskSendUBXmessage_Init
                0x000000009d006600        0x8
 .text.vTaskSendUBXmessage_Init
                0x000000009d006600        0x8 build/default/debug/_ext/1360937237/GNSStasks.o
                0x000000009d006600                vTaskSendUBXmessage_Init

.text.vListInitialiseItem
                0x000000009d006608        0x8
 .text.vListInitialiseItem
                0x000000009d006608        0x8 build/default/debug/_ext/404212886/list.o
                0x000000009d006608                vListInitialiseItem

.rodata.str1.4  0x000000009d006610        0x8
 .rodata.str1.4
                0x000000009d006610        0x8 build/default/debug/_ext/404212886/FreeRTOS_tasks.o

.text._on_reset
                0x000000009d006618        0x8
 .text._on_reset
                0x000000009d006618        0x8 c:/program files/microchip/xc32/v4.00/bin/bin/../../lib/gcc/pic32mx/8.3.1/../../../../pic32mx/lib/fpu64\libpic32.a(default-on-reset.o)
                0x000000009d006618                _on_reset

.text._on_bootstrap
                0x000000009d006620        0x8
 .text._on_bootstrap
                0x000000009d006620        0x8 c:/program files/microchip/xc32/v4.00/bin/bin/../../lib/gcc/pic32mx/8.3.1/../../../../pic32mx/lib/fpu64\libpic32.a(default-on-bootstrap.o)
                0x000000009d006620                _on_bootstrap

.rodata         0x000000009d0001fc        0x4
 .rodata        0x000000009d0001fc        0x4 build/default/debug/_ext/951553261/port.o
                0x000000009d0001fc                xISRStackTop
